
uvm_va_block.o:     file format elf64-x86-64


Disassembly of section .text:

0000000000000000 <uvm_page_table_range_entry_address>:
       0:	e8 00 00 00 00       	callq  5 <uvm_page_table_range_entry_address+0x5>
       5:	55                   	push   %rbp
       6:	48 89 e5             	mov    %rsp,%rbp
       9:	41 55                	push   %r13
       b:	41 54                	push   %r12
       d:	49 89 d4             	mov    %rdx,%r12
      10:	53                   	push   %rbx
      11:	48 8b 47 30          	mov    0x30(%rdi),%rax
      15:	48 89 f3             	mov    %rsi,%rbx
      18:	8b 7e 10             	mov    0x10(%rsi),%edi
      1b:	4c 8b 68 30          	mov    0x30(%rax),%r13
      1f:	48 8b 40 60          	mov    0x60(%rax),%rax
      23:	e8 00 00 00 00       	callq  28 <uvm_page_table_range_entry_address+0x28>
      28:	89 c7                	mov    %eax,%edi
      2a:	e8 00 00 00 00       	callq  2f <uvm_page_table_range_entry_address+0x2f>
      2f:	48 8b 0b             	mov    (%rbx),%rcx
      32:	49 89 c0             	mov    %rax,%r8
      35:	8b 43 08             	mov    0x8(%rbx),%eax
      38:	5b                   	pop    %rbx
      39:	44 89 c2             	mov    %r8d,%edx
      3c:	4c 01 e0             	add    %r12,%rax
      3f:	41 5c                	pop    %r12
      41:	41 5d                	pop    %r13
      43:	48 0f af c2          	imul   %rdx,%rax
      47:	5d                   	pop    %rbp
      48:	8b 51 18             	mov    0x18(%rcx),%edx
      4b:	48 03 41 10          	add    0x10(%rcx),%rax
      4f:	c3                   	retq   

0000000000000050 <uvm_processor_mask_get_count>:
      50:	e8 00 00 00 00       	callq  55 <uvm_processor_mask_get_count+0x5>
      55:	55                   	push   %rbp
      56:	49 89 f8             	mov    %rdi,%r8
      59:	48 bf ff ff ff ff 01 	movabs $0x1ffffffff,%rdi
      60:	00 00 00 
      63:	49 23 38             	and    (%r8),%rdi
      66:	e8 00 00 00 00       	callq  6b <uvm_processor_mask_get_count+0x1b>
      6b:	48 89 e5             	mov    %rsp,%rbp
      6e:	5d                   	pop    %rbp
      6f:	c3                   	retq   

0000000000000070 <uvm_gpu_va_space_get>:
      70:	e8 00 00 00 00       	callq  75 <uvm_gpu_va_space_get+0x5>
      75:	55                   	push   %rbp
      76:	48 89 e5             	mov    %rsp,%rbp
      79:	48 85 f6             	test   %rsi,%rsi
      7c:	74 2b                	je     a9 <uvm_gpu_va_space_get+0x39>
      7e:	48 8b 06             	mov    (%rsi),%rax
      81:	48 85 c0             	test   %rax,%rax
      84:	74 23                	je     a9 <uvm_gpu_va_space_get+0x39>
      86:	8b 90 b8 5d 00 00    	mov    0x5db8(%rax),%edx
      8c:	48 0f a3 97 20 09 00 	bt     %rdx,0x920(%rdi)
      93:	00 
      94:	73 13                	jae    a9 <uvm_gpu_va_space_get+0x39>
      96:	8b 80 b8 5d 00 00    	mov    0x5db8(%rax),%eax
      9c:	5d                   	pop    %rbp
      9d:	83 e8 01             	sub    $0x1,%eax
      a0:	48 8b 84 c7 40 0b 00 	mov    0xb40(%rdi,%rax,8),%rax
      a7:	00 
      a8:	c3                   	retq   
      a9:	31 c0                	xor    %eax,%eax
      ab:	5d                   	pop    %rbp
      ac:	c3                   	retq   
      ad:	0f 1f 00             	nopl   (%rax)

00000000000000b0 <block_page_prot_gpu>:
      b0:	e8 00 00 00 00       	callq  b5 <block_page_prot_gpu+0x5>
      b5:	55                   	push   %rbp
      b6:	8b 46 10             	mov    0x10(%rsi),%eax
      b9:	83 e8 01             	sub    $0x1,%eax
      bc:	48 8b 84 c7 48 01 00 	mov    0x148(%rdi,%rax,8),%rax
      c3:	00 
      c4:	48 89 e5             	mov    %rsp,%rbp
      c7:	48 85 c0             	test   %rax,%rax
      ca:	74 37                	je     103 <block_page_prot_gpu+0x53>
      cc:	0f b7 d2             	movzwl %dx,%edx
      cf:	48 0f a3 90 80 01 00 	bt     %rdx,0x180(%rax)
      d6:	00 
      d7:	41 b8 03 00 00 00    	mov    $0x3,%r8d
      dd:	72 1f                	jb     fe <block_page_prot_gpu+0x4e>
      df:	48 0f a3 90 40 01 00 	bt     %rdx,0x140(%rax)
      e6:	00 
      e7:	41 b8 02 00 00 00    	mov    $0x2,%r8d
      ed:	72 0f                	jb     fe <block_page_prot_gpu+0x4e>
      ef:	45 31 c0             	xor    %r8d,%r8d
      f2:	48 0f a3 90 00 01 00 	bt     %rdx,0x100(%rax)
      f9:	00 
      fa:	41 0f 92 c0          	setb   %r8b
      fe:	44 89 c0             	mov    %r8d,%eax
     101:	5d                   	pop    %rbp
     102:	c3                   	retq   
     103:	45 31 c0             	xor    %r8d,%r8d
     106:	5d                   	pop    %rbp
     107:	44 89 c0             	mov    %r8d,%eax
     10a:	c3                   	retq   
     10b:	0f 1f 44 00 00       	nopl   0x0(%rax,%rax,1)

0000000000000110 <block_page_prot_cpu>:
     110:	e8 00 00 00 00       	callq  115 <block_page_prot_cpu+0x5>
     115:	55                   	push   %rbp
     116:	0f b7 f6             	movzwl %si,%esi
     119:	48 89 e5             	mov    %rsp,%rbp
     11c:	48 0f a3 b7 e0 00 00 	bt     %rsi,0xe0(%rdi)
     123:	00 
     124:	b8 03 00 00 00       	mov    $0x3,%eax
     129:	72 0d                	jb     138 <block_page_prot_cpu+0x28>
     12b:	31 c0                	xor    %eax,%eax
     12d:	48 0f a3 b7 a0 00 00 	bt     %rsi,0xa0(%rdi)
     134:	00 
     135:	0f 92 c0             	setb   %al
     138:	5d                   	pop    %rbp
     139:	c3                   	retq   
     13a:	66 0f 1f 44 00 00    	nopw   0x0(%rax,%rax,1)

0000000000000140 <block_page_prot>:
     140:	e8 00 00 00 00       	callq  145 <block_page_prot+0x5>
     145:	55                   	push   %rbp
     146:	0f b7 d2             	movzwl %dx,%edx
     149:	48 89 e5             	mov    %rsp,%rbp
     14c:	85 f6                	test   %esi,%esi
     14e:	75 09                	jne    159 <block_page_prot+0x19>
     150:	89 d6                	mov    %edx,%esi
     152:	e8 b9 ff ff ff       	callq  110 <block_page_prot_cpu>
     157:	5d                   	pop    %rbp
     158:	c3                   	retq   
     159:	48 8b 47 28          	mov    0x28(%rdi),%rax
     15d:	8d 4e ff             	lea    -0x1(%rsi),%ecx
     160:	48 8b 00             	mov    (%rax),%rax
     163:	48 8b 74 c8 08       	mov    0x8(%rax,%rcx,8),%rsi
     168:	e8 43 ff ff ff       	callq  b0 <block_page_prot_gpu>
     16d:	5d                   	pop    %rbp
     16e:	c3                   	retq   
     16f:	90                   	nop

0000000000000170 <block_gpu_chunk_size>:
     170:	e8 00 00 00 00       	callq  175 <block_gpu_chunk_size+0x5>
     175:	0f b7 ca             	movzwl %dx,%ecx
     178:	48 8b 47 38          	mov    0x38(%rdi),%rax
     17c:	48 8b 57 30          	mov    0x30(%rdi),%rdx
     180:	55                   	push   %rbp
     181:	48 c1 e1 0c          	shl    $0xc,%rcx
     185:	48 8b 36             	mov    (%rsi),%rsi
     188:	48 01 ca             	add    %rcx,%rdx
     18b:	48 83 c0 01          	add    $0x1,%rax
     18f:	b9 ff ff ff ff       	mov    $0xffffffff,%ecx
     194:	48 29 d0             	sub    %rdx,%rax
     197:	48 89 e5             	mov    %rsp,%rbp
     19a:	5d                   	pop    %rbp
     19b:	48 0f bd c8          	bsr    %rax,%rcx
     19f:	b8 01 00 00 00       	mov    $0x1,%eax
     1a4:	48 d3 e0             	shl    %cl,%rax
     1a7:	8d 4a ff             	lea    -0x1(%rdx),%ecx
     1aa:	31 d1                	xor    %edx,%ecx
     1ac:	8d 50 ff             	lea    -0x1(%rax),%edx
     1af:	23 8e 88 5e 00 00    	and    0x5e88(%rsi),%ecx
     1b5:	09 d0                	or     %edx,%eax
     1b7:	21 c1                	and    %eax,%ecx
     1b9:	b8 01 00 00 00       	mov    $0x1,%eax
     1be:	48 0f bd c9          	bsr    %rcx,%rcx
     1c2:	d3 e0                	shl    %cl,%eax
     1c4:	c3                   	retq   
     1c5:	66 66 2e 0f 1f 84 00 	data16 nopw %cs:0x0(%rax,%rax,1)
     1cc:	00 00 00 00 

00000000000001d0 <is_block_phys_contig>:
     1d0:	e8 00 00 00 00       	callq  1d5 <is_block_phys_contig+0x5>
     1d5:	85 f6                	test   %esi,%esi
     1d7:	74 37                	je     210 <is_block_phys_contig+0x40>
     1d9:	83 fe 21             	cmp    $0x21,%esi
     1dc:	74 32                	je     210 <is_block_phys_contig+0x40>
     1de:	55                   	push   %rbp
     1df:	48 8b 47 38          	mov    0x38(%rdi),%rax
     1e3:	8d 56 ff             	lea    -0x1(%rsi),%edx
     1e6:	48 89 e5             	mov    %rsp,%rbp
     1e9:	53                   	push   %rbx
     1ea:	48 8d 58 01          	lea    0x1(%rax),%rbx
     1ee:	48 8b 47 28          	mov    0x28(%rdi),%rax
     1f2:	48 2b 5f 30          	sub    0x30(%rdi),%rbx
     1f6:	48 8b 00             	mov    (%rax),%rax
     1f9:	48 8b 74 d0 08       	mov    0x8(%rax,%rdx,8),%rsi
     1fe:	31 d2                	xor    %edx,%edx
     200:	e8 6b ff ff ff       	callq  170 <block_gpu_chunk_size>
     205:	89 c0                	mov    %eax,%eax
     207:	48 39 d8             	cmp    %rbx,%rax
     20a:	5b                   	pop    %rbx
     20b:	5d                   	pop    %rbp
     20c:	0f 94 c0             	sete   %al
     20f:	c3                   	retq   
     210:	48 83 bf 40 01 00 00 	cmpq   $0x0,0x140(%rdi)
     217:	00 
     218:	0f 95 c0             	setne  %al
     21b:	c3                   	retq   
     21c:	0f 1f 40 00          	nopl   0x0(%rax)

0000000000000220 <uvm_page_mask_region_weight>:
     220:	e8 00 00 00 00       	callq  225 <uvm_page_mask_region_weight+0x5>
     225:	55                   	push   %rbp
     226:	48 89 e5             	mov    %rsp,%rbp
     229:	41 55                	push   %r13
     22b:	45 31 ed             	xor    %r13d,%r13d
     22e:	41 54                	push   %r12
     230:	49 89 fc             	mov    %rdi,%r12
     233:	53                   	push   %rbx
     234:	89 f3                	mov    %esi,%ebx
     236:	66 85 f6             	test   %si,%si
     239:	74 0b                	je     246 <uvm_page_mask_region_weight+0x26>
     23b:	0f b7 f6             	movzwl %si,%esi
     23e:	e8 00 00 00 00       	callq  243 <uvm_page_mask_region_weight+0x23>
     243:	41 89 c5             	mov    %eax,%r13d
     246:	c1 eb 10             	shr    $0x10,%ebx
     249:	4c 89 e7             	mov    %r12,%rdi
     24c:	89 de                	mov    %ebx,%esi
     24e:	e8 00 00 00 00       	callq  253 <uvm_page_mask_region_weight+0x33>
     253:	5b                   	pop    %rbx
     254:	41 5c                	pop    %r12
     256:	44 29 e8             	sub    %r13d,%eax
     259:	41 5d                	pop    %r13
     25b:	5d                   	pop    %rbp
     25c:	c3                   	retq   
     25d:	0f 1f 00             	nopl   (%rax)

0000000000000260 <uvm_gpu_id_round_robin>:
     260:	e8 00 00 00 00       	callq  265 <uvm_gpu_id_round_robin+0x5>
     265:	55                   	push   %rbp
     266:	41 89 f8             	mov    %edi,%r8d
     269:	48 89 e5             	mov    %rsp,%rbp
     26c:	41 55                	push   %r13
     26e:	41 89 d5             	mov    %edx,%r13d
     271:	41 54                	push   %r12
     273:	49 89 f4             	mov    %rsi,%r12
     276:	53                   	push   %rbx
     277:	31 db                	xor    %ebx,%ebx
     279:	eb 08                	jmp    283 <uvm_gpu_id_round_robin+0x23>
     27b:	83 c3 01             	add    $0x1,%ebx
     27e:	41 38 dd             	cmp    %bl,%r13b
     281:	72 36                	jb     2b9 <uvm_gpu_id_round_robin+0x59>
     283:	41 8d 50 01          	lea    0x1(%r8),%edx
     287:	be 21 00 00 00       	mov    $0x21,%esi
     28c:	4c 89 e7             	mov    %r12,%rdi
     28f:	e8 00 00 00 00       	callq  294 <uvm_gpu_id_round_robin+0x34>
     294:	41 89 c0             	mov    %eax,%r8d
     297:	83 f8 21             	cmp    $0x21,%eax
     29a:	75 df                	jne    27b <uvm_gpu_id_round_robin+0x1b>
     29c:	ba 01 00 00 00       	mov    $0x1,%edx
     2a1:	be 21 00 00 00       	mov    $0x21,%esi
     2a6:	4c 89 e7             	mov    %r12,%rdi
     2a9:	83 c3 01             	add    $0x1,%ebx
     2ac:	e8 00 00 00 00       	callq  2b1 <uvm_gpu_id_round_robin+0x51>
     2b1:	41 89 c0             	mov    %eax,%r8d
     2b4:	41 38 dd             	cmp    %bl,%r13b
     2b7:	73 ca                	jae    283 <uvm_gpu_id_round_robin+0x23>
     2b9:	5b                   	pop    %rbx
     2ba:	44 89 c0             	mov    %r8d,%eax
     2bd:	41 5c                	pop    %r12
     2bf:	41 5d                	pop    %r13
     2c1:	5d                   	pop    %rbp
     2c2:	c3                   	retq   
     2c3:	66 66 2e 0f 1f 84 00 	data16 nopw %cs:0x0(%rax,%rax,1)
     2ca:	00 00 00 00 
     2ce:	66 90                	xchg   %ax,%ax

00000000000002d0 <block_gpu_unmap_phys_all_cpu_pages>:
     2d0:	e8 00 00 00 00       	callq  2d5 <block_gpu_unmap_phys_all_cpu_pages+0x5>
     2d5:	55                   	push   %rbp
     2d6:	48 89 e5             	mov    %rsp,%rbp
     2d9:	41 57                	push   %r15
     2db:	41 56                	push   %r14
     2dd:	41 55                	push   %r13
     2df:	41 54                	push   %r12
     2e1:	53                   	push   %rbx
     2e2:	48 83 ec 08          	sub    $0x8,%rsp
     2e6:	8b 46 10             	mov    0x10(%rsi),%eax
     2e9:	48 8b 57 38          	mov    0x38(%rdi),%rdx
     2ed:	83 e8 01             	sub    $0x1,%eax
     2f0:	4c 8b a4 c7 48 01 00 	mov    0x148(%rdi,%rax,8),%r12
     2f7:	00 
     2f8:	48 8d 42 01          	lea    0x1(%rdx),%rax
     2fc:	48 2b 47 30          	sub    0x30(%rdi),%rax
     300:	a9 00 f0 ff 0f       	test   $0xffff000,%eax
     305:	74 75                	je     37c <block_gpu_unmap_phys_all_cpu_pages+0xac>
     307:	48 8d 86 f0 09 00 00 	lea    0x9f0(%rsi),%rax
     30e:	49 89 ff             	mov    %rdi,%r15
     311:	48 89 f3             	mov    %rsi,%rbx
     314:	45 31 ed             	xor    %r13d,%r13d
     317:	48 89 45 d0          	mov    %rax,-0x30(%rbp)
     31b:	49 8b 84 24 88 00 00 	mov    0x88(%r12),%rax
     322:	00 
     323:	45 0f b7 f5          	movzwl %r13w,%r14d
     327:	4a 8b 34 f0          	mov    (%rax,%r14,8),%rsi
     32b:	48 85 f6             	test   %rsi,%rsi
     32e:	74 36                	je     366 <block_gpu_unmap_phys_all_cpu_pages+0x96>
     330:	48 8b 7d d0          	mov    -0x30(%rbp),%rdi
     334:	e8 00 00 00 00       	callq  339 <block_gpu_unmap_phys_all_cpu_pages+0x69>
     339:	49 8b 84 24 88 00 00 	mov    0x88(%r12),%rax
     340:	00 
     341:	ba 00 10 00 00       	mov    $0x1000,%edx
     346:	48 89 df             	mov    %rbx,%rdi
     349:	4a 8b 34 f0          	mov    (%rax,%r14,8),%rsi
     34d:	e8 00 00 00 00       	callq  352 <block_gpu_unmap_phys_all_cpu_pages+0x82>
     352:	49 8b 84 24 88 00 00 	mov    0x88(%r12),%rax
     359:	00 
     35a:	4a c7 04 f0 00 00 00 	movq   $0x0,(%rax,%r14,8)
     361:	00 
     362:	49 8b 57 38          	mov    0x38(%r15),%rdx
     366:	48 8d 42 01          	lea    0x1(%rdx),%rax
     36a:	49 2b 47 30          	sub    0x30(%r15),%rax
     36e:	41 83 c5 01          	add    $0x1,%r13d
     372:	48 c1 e8 0c          	shr    $0xc,%rax
     376:	66 41 39 c5          	cmp    %ax,%r13w
     37a:	75 9f                	jne    31b <block_gpu_unmap_phys_all_cpu_pages+0x4b>
     37c:	48 83 c4 08          	add    $0x8,%rsp
     380:	5b                   	pop    %rbx
     381:	41 5c                	pop    %r12
     383:	41 5d                	pop    %r13
     385:	41 5e                	pop    %r14
     387:	41 5f                	pop    %r15
     389:	5d                   	pop    %rbp
     38a:	c3                   	retq   
     38b:	0f 1f 44 00 00       	nopl   0x0(%rax,%rax,1)

0000000000000390 <block_copy_begin_push>:
     390:	e8 00 00 00 00       	callq  395 <block_copy_begin_push+0x5>
     395:	55                   	push   %rbp
     396:	48 89 e5             	mov    %rsp,%rbp
     399:	53                   	push   %rbx
     39a:	48 8b 47 28          	mov    0x28(%rdi),%rax
     39e:	4c 8b 4f 38          	mov    0x38(%rdi),%r9
     3a2:	48 8b 5f 30          	mov    0x30(%rdi),%rbx
     3a6:	48 8b 38             	mov    (%rax),%rdi
     3a9:	85 d2                	test   %edx,%edx
     3ab:	75 56                	jne    403 <block_copy_begin_push+0x73>
     3ad:	8d 46 ff             	lea    -0x1(%rsi),%eax
     3b0:	41 89 f2             	mov    %esi,%r10d
     3b3:	48 8b 44 c7 08       	mov    0x8(%rdi,%rax,8),%rax
     3b8:	4c 8b 98 68 04 00 00 	mov    0x468(%rax),%r11
     3bf:	85 f6                	test   %esi,%esi
     3c1:	0f 85 ac 00 00 00    	jne    473 <block_copy_begin_push+0xe3>
     3c7:	48 c7 c2 00 00 00 00 	mov    $0x0,%rdx
     3ce:	48 89 d0             	mov    %rdx,%rax
     3d1:	41 51                	push   %r9
     3d3:	44 89 d6             	mov    %r10d,%esi
     3d6:	49 c7 c1 00 00 00 00 	mov    $0x0,%r9
     3dd:	4c 89 df             	mov    %r11,%rdi
     3e0:	53                   	push   %rbx
     3e1:	52                   	push   %rdx
     3e2:	31 d2                	xor    %edx,%edx
     3e4:	50                   	push   %rax
     3e5:	68 00 00 00 00       	pushq  $0x0
     3ea:	68 94 09 00 00       	pushq  $0x994
     3ef:	68 00 00 00 00       	pushq  $0x0
     3f4:	e8 00 00 00 00       	callq  3f9 <block_copy_begin_push+0x69>
     3f9:	48 8b 5d f8          	mov    -0x8(%rbp),%rbx
     3fd:	48 83 c4 38          	add    $0x38,%rsp
     401:	c9                   	leaveq 
     402:	c3                   	retq   
     403:	8d 42 ff             	lea    -0x1(%rdx),%eax
     406:	41 ba 01 00 00 00    	mov    $0x1,%r10d
     40c:	48 8b 54 c7 08       	mov    0x8(%rdi,%rax,8),%rdx
     411:	48 8b 02             	mov    (%rdx),%rax
     414:	4c 8b 9a 68 04 00 00 	mov    0x468(%rdx),%r11
     41b:	48 c7 c2 00 00 00 00 	mov    $0x0,%rdx
     422:	48 05 a0 5c 00 00    	add    $0x5ca0,%rax
     428:	85 f6                	test   %esi,%esi
     42a:	74 a5                	je     3d1 <block_copy_begin_push+0x41>
     42c:	8d 56 ff             	lea    -0x1(%rsi),%edx
     42f:	be 04 00 00 00       	mov    $0x4,%esi
     434:	4c 8b 54 d7 08       	mov    0x8(%rdi,%rdx,8),%r10
     439:	41 51                	push   %r9
     43b:	4c 89 df             	mov    %r11,%rdi
     43e:	49 c7 c1 00 00 00 00 	mov    $0x0,%r9
     445:	53                   	push   %rbx
     446:	49 8b 1a             	mov    (%r10),%rbx
     449:	48 8d 93 a0 5c 00 00 	lea    0x5ca0(%rbx),%rdx
     450:	52                   	push   %rdx
     451:	4c 89 d2             	mov    %r10,%rdx
     454:	50                   	push   %rax
     455:	68 00 00 00 00       	pushq  $0x0
     45a:	68 89 09 00 00       	pushq  $0x989
     45f:	68 00 00 00 00       	pushq  $0x0
     464:	e8 00 00 00 00       	callq  469 <block_copy_begin_push+0xd9>
     469:	48 8b 5d f8          	mov    -0x8(%rbp),%rbx
     46d:	48 83 c4 38          	add    $0x38,%rsp
     471:	c9                   	leaveq 
     472:	c3                   	retq   
     473:	48 8b 10             	mov    (%rax),%rdx
     476:	45 31 d2             	xor    %r10d,%r10d
     479:	48 c7 c0 00 00 00 00 	mov    $0x0,%rax
     480:	48 81 c2 a0 5c 00 00 	add    $0x5ca0,%rdx
     487:	e9 45 ff ff ff       	jmpq   3d1 <block_copy_begin_push+0x41>
     48c:	0f 1f 40 00          	nopl   0x0(%rax)

0000000000000490 <uvm_va_block_first_subregion_in_mask>:
     490:	e8 00 00 00 00       	callq  495 <uvm_va_block_first_subregion_in_mask+0x5>
     495:	55                   	push   %rbp
     496:	89 f8                	mov    %edi,%eax
     498:	c1 e8 10             	shr    $0x10,%eax
     49b:	48 89 e5             	mov    %rsp,%rbp
     49e:	41 55                	push   %r13
     4a0:	41 54                	push   %r12
     4a2:	53                   	push   %rbx
     4a3:	48 85 f6             	test   %rsi,%rsi
     4a6:	74 3b                	je     4e3 <uvm_va_block_first_subregion_in_mask+0x53>
     4a8:	49 89 f4             	mov    %rsi,%r12
     4ab:	44 0f b7 e8          	movzwl %ax,%r13d
     4af:	0f b7 d7             	movzwl %di,%edx
     4b2:	4c 89 ee             	mov    %r13,%rsi
     4b5:	4c 89 e7             	mov    %r12,%rdi
     4b8:	e8 00 00 00 00       	callq  4bd <uvm_va_block_first_subregion_in_mask+0x2d>
     4bd:	4c 89 e7             	mov    %r12,%rdi
     4c0:	4c 89 ee             	mov    %r13,%rsi
     4c3:	48 89 c3             	mov    %rax,%rbx
     4c6:	0f b7 c0             	movzwl %ax,%eax
     4c9:	48 8d 50 01          	lea    0x1(%rax),%rdx
     4cd:	e8 00 00 00 00       	callq  4d2 <uvm_va_block_first_subregion_in_mask+0x42>
     4d2:	89 c7                	mov    %eax,%edi
     4d4:	0f b7 c3             	movzwl %bx,%eax
     4d7:	5b                   	pop    %rbx
     4d8:	41 5c                	pop    %r12
     4da:	c1 e7 10             	shl    $0x10,%edi
     4dd:	41 5d                	pop    %r13
     4df:	5d                   	pop    %rbp
     4e0:	09 f8                	or     %edi,%eax
     4e2:	c3                   	retq   
     4e3:	c1 e0 10             	shl    $0x10,%eax
     4e6:	89 c3                	mov    %eax,%ebx
     4e8:	0f b7 c7             	movzwl %di,%eax
     4eb:	09 d8                	or     %ebx,%eax
     4ed:	5b                   	pop    %rbx
     4ee:	41 5c                	pop    %r12
     4f0:	41 5d                	pop    %r13
     4f2:	5d                   	pop    %rbp
     4f3:	c3                   	retq   
     4f4:	66 66 2e 0f 1f 84 00 	data16 nopw %cs:0x0(%rax,%rax,1)
     4fb:	00 00 00 00 
     4ff:	90                   	nop

0000000000000500 <uvm_page_mask_region_fill>:
     500:	e8 00 00 00 00       	callq  505 <uvm_page_mask_region_fill+0x5>
     505:	55                   	push   %rbp
     506:	89 f2                	mov    %esi,%edx
     508:	0f b7 f6             	movzwl %si,%esi
     50b:	c1 ea 10             	shr    $0x10,%edx
     50e:	29 f2                	sub    %esi,%edx
     510:	48 89 e5             	mov    %rsp,%rbp
     513:	e8 00 00 00 00       	callq  518 <uvm_page_mask_region_fill+0x18>
     518:	5d                   	pop    %rbp
     519:	c3                   	retq   
     51a:	66 0f 1f 44 00 00    	nopw   0x0(%rax,%rax,1)

0000000000000520 <block_sysmem_mappings_add_gpu_chunk>:
     520:	e8 00 00 00 00       	callq  525 <block_sysmem_mappings_add_gpu_chunk+0x5>
     525:	55                   	push   %rbp
     526:	48 89 e5             	mov    %rsp,%rbp
     529:	41 56                	push   %r14
     52b:	49 89 d6             	mov    %rdx,%r14
     52e:	48 89 ca             	mov    %rcx,%rdx
     531:	41 55                	push   %r13
     533:	49 89 f5             	mov    %rsi,%r13
     536:	41 54                	push   %r12
     538:	49 89 fc             	mov    %rdi,%r12
     53b:	48 8d be 70 04 00 00 	lea    0x470(%rsi),%rdi
     542:	4c 89 f6             	mov    %r14,%rsi
     545:	53                   	push   %rbx
     546:	48 89 cb             	mov    %rcx,%rbx
     549:	e8 00 00 00 00       	callq  54e <block_sysmem_mappings_add_gpu_chunk+0x2e>
     54e:	41 0f b6 4e 09       	movzbl 0x9(%r14),%ecx
     553:	45 8b 4d 10          	mov    0x10(%r13),%r9d
     557:	ba 01 00 00 00       	mov    $0x1,%edx
     55c:	48 8d bb f0 09 00 00 	lea    0x9f0(%rbx),%rdi
     563:	4d 89 e0             	mov    %r12,%r8
     566:	48 89 c6             	mov    %rax,%rsi
     569:	d3 e2                	shl    %cl,%edx
     56b:	89 d1                	mov    %edx,%ecx
     56d:	41 0f b7 56 0a       	movzwl 0xa(%r14),%edx
     572:	81 e2 ff 03 00 00    	and    $0x3ff,%edx
     578:	48 c1 e2 0c          	shl    $0xc,%rdx
     57c:	49 03 54 24 30       	add    0x30(%r12),%rdx
     581:	e8 00 00 00 00       	callq  586 <block_sysmem_mappings_add_gpu_chunk+0x66>
     586:	5b                   	pop    %rbx
     587:	41 5c                	pop    %r12
     589:	41 5d                	pop    %r13
     58b:	41 5e                	pop    %r14
     58d:	5d                   	pop    %rbp
     58e:	c3                   	retq   
     58f:	90                   	nop

0000000000000590 <uvm_page_mask_region_clear>:
     590:	e8 00 00 00 00       	callq  595 <uvm_page_mask_region_clear+0x5>
     595:	55                   	push   %rbp
     596:	89 f2                	mov    %esi,%edx
     598:	0f b7 f6             	movzwl %si,%esi
     59b:	c1 ea 10             	shr    $0x10,%edx
     59e:	29 f2                	sub    %esi,%edx
     5a0:	48 89 e5             	mov    %rsp,%rbp
     5a3:	e8 00 00 00 00       	callq  5a8 <uvm_page_mask_region_clear+0x18>
     5a8:	5d                   	pop    %rbp
     5a9:	c3                   	retq   
     5aa:	66 0f 1f 44 00 00    	nopw   0x0(%rax,%rax,1)

00000000000005b0 <uvm_page_mask_region_clear_outside>:
     5b0:	e8 00 00 00 00       	callq  5b5 <uvm_page_mask_region_clear_outside+0x5>
     5b5:	55                   	push   %rbp
     5b6:	48 89 e5             	mov    %rsp,%rbp
     5b9:	41 54                	push   %r12
     5bb:	49 89 fc             	mov    %rdi,%r12
     5be:	53                   	push   %rbx
     5bf:	89 f3                	mov    %esi,%ebx
     5c1:	c1 eb 10             	shr    $0x10,%ebx
     5c4:	66 85 f6             	test   %si,%si
     5c7:	74 0a                	je     5d3 <uvm_page_mask_region_clear_outside+0x23>
     5c9:	0f b7 d6             	movzwl %si,%edx
     5cc:	31 f6                	xor    %esi,%esi
     5ce:	e8 00 00 00 00       	callq  5d3 <uvm_page_mask_region_clear_outside+0x23>
     5d3:	66 81 fb ff 01       	cmp    $0x1ff,%bx
     5d8:	77 12                	ja     5ec <uvm_page_mask_region_clear_outside+0x3c>
     5da:	ba 00 02 00 00       	mov    $0x200,%edx
     5df:	0f b7 f3             	movzwl %bx,%esi
     5e2:	4c 89 e7             	mov    %r12,%rdi
     5e5:	29 da                	sub    %ebx,%edx
     5e7:	e8 00 00 00 00       	callq  5ec <uvm_page_mask_region_clear_outside+0x3c>
     5ec:	5b                   	pop    %rbx
     5ed:	41 5c                	pop    %r12
     5ef:	5d                   	pop    %rbp
     5f0:	c3                   	retq   
     5f1:	66 66 2e 0f 1f 84 00 	data16 nopw %cs:0x0(%rax,%rax,1)
     5f8:	00 00 00 00 
     5fc:	0f 1f 40 00          	nopl   0x0(%rax)

0000000000000600 <block_populate_page_cpu_evict>:
     600:	e8 00 00 00 00       	callq  605 <block_populate_page_cpu_evict+0x5>
     605:	55                   	push   %rbp
     606:	48 89 e5             	mov    %rsp,%rbp
     609:	41 57                	push   %r15
     60b:	41 56                	push   %r14
     60d:	41 55                	push   %r13
     60f:	41 54                	push   %r12
     611:	4c 8d a7 40 03 00 00 	lea    0x340(%rdi),%r12
     618:	53                   	push   %rbx
     619:	48 83 ec 58          	sub    $0x58,%rsp
     61d:	8b 0d 00 00 00 00    	mov    0x0(%rip),%ecx        # 623 <block_populate_page_cpu_evict+0x23>
     623:	65 48 8b 04 25 28 00 	mov    %gs:0x28,%rax
     62a:	00 00 
     62c:	48 89 45 d0          	mov    %rax,-0x30(%rbp)
     630:	31 c0                	xor    %eax,%eax
     632:	85 c9                	test   %ecx,%ecx
     634:	b9 ff ff ff ff       	mov    $0xffffffff,%ecx
     639:	4c 0f 44 e0          	cmove  %rax,%r12
     63d:	48 8b 47 38          	mov    0x38(%rdi),%rax
     641:	48 83 c0 01          	add    $0x1,%rax
     645:	48 2b 47 30          	sub    0x30(%rdi),%rax
     649:	48 c1 e8 0c          	shr    $0xc,%rax
     64d:	48 0f bd c8          	bsr    %rax,%rcx
     651:	48 83 bf 40 01 00 00 	cmpq   $0x0,0x140(%rdi)
     658:	00 
     659:	89 4d 88             	mov    %ecx,-0x78(%rbp)
     65c:	74 28                	je     686 <block_populate_page_cpu_evict+0x86>
     65e:	45 31 e4             	xor    %r12d,%r12d
     661:	48 8b 45 d0          	mov    -0x30(%rbp),%rax
     665:	65 48 33 04 25 28 00 	xor    %gs:0x28,%rax
     66c:	00 00 
     66e:	0f 85 cf 01 00 00    	jne    843 <block_populate_page_cpu_evict+0x243>
     674:	48 83 c4 58          	add    $0x58,%rsp
     678:	44 89 e0             	mov    %r12d,%eax
     67b:	5b                   	pop    %rbx
     67c:	41 5c                	pop    %r12
     67e:	41 5d                	pop    %r13
     680:	41 5e                	pop    %r14
     682:	41 5f                	pop    %r15
     684:	5d                   	pop    %rbp
     685:	c3                   	retq   
     686:	41 89 d6             	mov    %edx,%r14d
     689:	49 89 ff             	mov    %rdi,%r15
     68c:	49 89 f5             	mov    %rsi,%r13
     68f:	89 d0                	mov    %edx,%eax
     691:	41 c1 ee 10          	shr    $0x10,%r14d
     695:	44 89 f3             	mov    %r14d,%ebx
     698:	48 85 f6             	test   %rsi,%rsi
     69b:	74 0f                	je     6ac <block_populate_page_cpu_evict+0xac>
     69d:	0f b7 d2             	movzwl %dx,%edx
     6a0:	41 0f b7 f6          	movzwl %r14w,%esi
     6a4:	4c 89 ef             	mov    %r13,%rdi
     6a7:	e8 00 00 00 00       	callq  6ac <block_populate_page_cpu_evict+0xac>
     6ac:	66 41 39 c6          	cmp    %ax,%r14w
     6b0:	74 ac                	je     65e <block_populate_page_cpu_evict+0x5e>
     6b2:	44 0f b7 f3          	movzwl %bx,%r14d
     6b6:	eb 1c                	jmp    6d4 <block_populate_page_cpu_evict+0xd4>
     6b8:	83 c0 01             	add    $0x1,%eax
     6bb:	4d 85 ed             	test   %r13,%r13
     6be:	74 0f                	je     6cf <block_populate_page_cpu_evict+0xcf>
     6c0:	48 8d 52 01          	lea    0x1(%rdx),%rdx
     6c4:	4c 89 f6             	mov    %r14,%rsi
     6c7:	4c 89 ef             	mov    %r13,%rdi
     6ca:	e8 00 00 00 00       	callq  6cf <block_populate_page_cpu_evict+0xcf>
     6cf:	66 39 c3             	cmp    %ax,%bx
     6d2:	74 8a                	je     65e <block_populate_page_cpu_evict+0x5e>
     6d4:	49 8b 8f 98 00 00 00 	mov    0x98(%r15),%rcx
     6db:	0f b7 d0             	movzwl %ax,%edx
     6de:	48 83 3c d1 00       	cmpq   $0x0,(%rcx,%rdx,8)
     6e3:	75 d3                	jne    6b8 <block_populate_page_cpu_evict+0xb8>
     6e5:	49 8d 77 58          	lea    0x58(%r15),%rsi
     6e9:	b9 00 02 00 00       	mov    $0x200,%ecx
     6ee:	48 8d 7d 90          	lea    -0x70(%rbp),%rdi
     6f2:	4c 89 ea             	mov    %r13,%rdx
     6f5:	e8 00 00 00 00       	callq  6fa <block_populate_page_cpu_evict+0xfa>
     6fa:	4d 85 e4             	test   %r12,%r12
     6fd:	74 0c                	je     70b <block_populate_page_cpu_evict+0x10b>
     6ff:	41 80 7c 24 09 00    	cmpb   $0x0,0x9(%r12)
     705:	0f 85 2d 01 00 00    	jne    838 <block_populate_page_cpu_evict+0x238>
     70b:	8b 75 88             	mov    -0x78(%rbp),%esi
     70e:	bf c2 0c 11 00       	mov    $0x110cc2,%edi
     713:	e8 00 00 00 00       	callq  718 <block_populate_page_cpu_evict+0x118>
     718:	49 89 c6             	mov    %rax,%r14
     71b:	48 85 c0             	test   %rax,%rax
     71e:	0f 84 14 01 00 00    	je     838 <block_populate_page_cpu_evict+0x238>
     724:	49 8b 47 38          	mov    0x38(%r15),%rax
     728:	31 db                	xor    %ebx,%ebx
     72a:	4c 8d 68 01          	lea    0x1(%rax),%r13
     72e:	4d 2b 6f 30          	sub    0x30(%r15),%r13
     732:	4d 8b 84 df 48 01 00 	mov    0x148(%r15,%rbx,8),%r8
     739:	00 
     73a:	4d 85 c0             	test   %r8,%r8
     73d:	74 66                	je     7a5 <block_populate_page_cpu_evict+0x1a5>
     73f:	49 8b 47 28          	mov    0x28(%r15),%rax
     743:	89 da                	mov    %ebx,%edx
     745:	49 8d 88 98 00 00 00 	lea    0x98(%r8),%rcx
     74c:	4c 89 f6             	mov    %r14,%rsi
     74f:	4c 89 45 80          	mov    %r8,-0x80(%rbp)
     753:	48 8b 00             	mov    (%rax),%rax
     756:	48 8b 7c d0 08       	mov    0x8(%rax,%rdx,8),%rdi
     75b:	4c 89 ea             	mov    %r13,%rdx
     75e:	48 89 7d 88          	mov    %rdi,-0x78(%rbp)
     762:	e8 00 00 00 00       	callq  767 <block_populate_page_cpu_evict+0x167>
     767:	41 89 c4             	mov    %eax,%r12d
     76a:	85 c0                	test   %eax,%eax
     76c:	75 55                	jne    7c3 <block_populate_page_cpu_evict+0x1c3>
     76e:	4c 8b 45 80          	mov    -0x80(%rbp),%r8
     772:	48 8b 7d 88          	mov    -0x78(%rbp),%rdi
     776:	45 31 c9             	xor    %r9d,%r9d
     779:	4c 89 e9             	mov    %r13,%rcx
     77c:	41 c6 80 90 00 00 00 	movb   $0x1,0x90(%r8)
     783:	01 
     784:	49 8b b0 98 00 00 00 	mov    0x98(%r8),%rsi
     78b:	48 81 c7 f0 09 00 00 	add    $0x9f0,%rdi
     792:	4d 89 f8             	mov    %r15,%r8
     795:	49 8b 57 30          	mov    0x30(%r15),%rdx
     799:	e8 00 00 00 00       	callq  79e <block_populate_page_cpu_evict+0x19e>
     79e:	41 89 c4             	mov    %eax,%r12d
     7a1:	85 c0                	test   %eax,%eax
     7a3:	75 1e                	jne    7c3 <block_populate_page_cpu_evict+0x1c3>
     7a5:	48 83 c3 01          	add    $0x1,%rbx
     7a9:	48 83 fb 20          	cmp    $0x20,%rbx
     7ad:	75 83                	jne    732 <block_populate_page_cpu_evict+0x132>
     7af:	41 c6 87 38 01 00 00 	movb   $0x1,0x138(%r15)
     7b6:	01 
     7b7:	4d 89 b7 40 01 00 00 	mov    %r14,0x140(%r15)
     7be:	e9 9b fe ff ff       	jmpq   65e <block_populate_page_cpu_evict+0x5e>
     7c3:	31 db                	xor    %ebx,%ebx
     7c5:	4d 8b ac df 48 01 00 	mov    0x148(%r15,%rbx,8),%r13
     7cc:	00 
     7cd:	89 d8                	mov    %ebx,%eax
     7cf:	4d 85 ed             	test   %r13,%r13
     7d2:	74 4b                	je     81f <block_populate_page_cpu_evict+0x21f>
     7d4:	49 8b b5 98 00 00 00 	mov    0x98(%r13),%rsi
     7db:	48 85 f6             	test   %rsi,%rsi
     7de:	74 3f                	je     81f <block_populate_page_cpu_evict+0x21f>
     7e0:	49 8b 57 28          	mov    0x28(%r15),%rdx
     7e4:	48 8b 12             	mov    (%rdx),%rdx
     7e7:	4c 8b 44 c2 08       	mov    0x8(%rdx,%rax,8),%r8
     7ec:	49 8d b8 f0 09 00 00 	lea    0x9f0(%r8),%rdi
     7f3:	4c 89 45 88          	mov    %r8,-0x78(%rbp)
     7f7:	e8 00 00 00 00       	callq  7fc <block_populate_page_cpu_evict+0x1fc>
     7fc:	4c 8b 45 88          	mov    -0x78(%rbp),%r8
     800:	ba 00 10 00 00       	mov    $0x1000,%edx
     805:	49 8b b5 98 00 00 00 	mov    0x98(%r13),%rsi
     80c:	4c 89 c7             	mov    %r8,%rdi
     80f:	e8 00 00 00 00       	callq  814 <block_populate_page_cpu_evict+0x214>
     814:	49 c7 85 98 00 00 00 	movq   $0x0,0x98(%r13)
     81b:	00 00 00 00 
     81f:	48 83 c3 01          	add    $0x1,%rbx
     823:	48 83 fb 20          	cmp    $0x20,%rbx
     827:	75 9c                	jne    7c5 <block_populate_page_cpu_evict+0x1c5>
     829:	31 f6                	xor    %esi,%esi
     82b:	4c 89 f7             	mov    %r14,%rdi
     82e:	e8 00 00 00 00       	callq  833 <block_populate_page_cpu_evict+0x233>
     833:	e9 29 fe ff ff       	jmpq   661 <block_populate_page_cpu_evict+0x61>
     838:	41 bc 51 00 00 00    	mov    $0x51,%r12d
     83e:	e9 1e fe ff ff       	jmpq   661 <block_populate_page_cpu_evict+0x61>
     843:	e8 00 00 00 00       	callq  848 <block_populate_page_cpu_evict+0x248>
     848:	0f 1f 84 00 00 00 00 	nopl   0x0(%rax,%rax,1)
     84f:	00 

0000000000000850 <uvm_perf_event_notify_migration>:
     850:	55                   	push   %rbp
     851:	48 89 e5             	mov    %rsp,%rbp
     854:	48 83 ec 40          	sub    $0x40,%rsp
     858:	65 48 8b 04 25 28 00 	mov    %gs:0x28,%rax
     85f:	00 00 
     861:	48 89 45 f8          	mov    %rax,-0x8(%rbp)
     865:	31 c0                	xor    %eax,%eax
     867:	48 8b 45 10          	mov    0x10(%rbp),%rax
     86b:	48 89 75 c0          	mov    %rsi,-0x40(%rbp)
     86f:	be 06 00 00 00       	mov    $0x6,%esi
     874:	48 89 55 c8          	mov    %rdx,-0x38(%rbp)
     878:	48 8d 55 c0          	lea    -0x40(%rbp),%rdx
     87c:	48 89 45 e0          	mov    %rax,-0x20(%rbp)
     880:	8b 45 18             	mov    0x18(%rbp),%eax
     883:	89 4d d0             	mov    %ecx,-0x30(%rbp)
     886:	89 45 e8             	mov    %eax,-0x18(%rbp)
     889:	8b 45 20             	mov    0x20(%rbp),%eax
     88c:	44 89 45 d4          	mov    %r8d,-0x2c(%rbp)
     890:	89 45 ec             	mov    %eax,-0x14(%rbp)
     893:	48 8b 45 28          	mov    0x28(%rbp),%rax
     897:	4c 89 4d d8          	mov    %r9,-0x28(%rbp)
     89b:	48 89 45 f0          	mov    %rax,-0x10(%rbp)
     89f:	e8 00 00 00 00       	callq  8a4 <uvm_perf_event_notify_migration+0x54>
     8a4:	48 8b 45 f8          	mov    -0x8(%rbp),%rax
     8a8:	65 48 33 04 25 28 00 	xor    %gs:0x28,%rax
     8af:	00 00 
     8b1:	75 02                	jne    8b5 <uvm_perf_event_notify_migration+0x65>
     8b3:	c9                   	leaveq 
     8b4:	c3                   	retq   
     8b5:	e8 00 00 00 00       	callq  8ba <uvm_perf_event_notify_migration+0x6a>
     8ba:	66 0f 1f 44 00 00    	nopw   0x0(%rax,%rax,1)

00000000000008c0 <block_mark_memory_used>:
     8c0:	e8 00 00 00 00       	callq  8c5 <block_mark_memory_used+0x5>
     8c5:	85 f6                	test   %esi,%esi
     8c7:	74 10                	je     8d9 <block_mark_memory_used+0x19>
     8c9:	48 8b 47 38          	mov    0x38(%rdi),%rax
     8cd:	48 2b 47 30          	sub    0x30(%rdi),%rax
     8d1:	48 3d ff ff 1f 00    	cmp    $0x1fffff,%rax
     8d7:	74 01                	je     8da <block_mark_memory_used+0x1a>
     8d9:	c3                   	retq   
     8da:	48 8b 47 28          	mov    0x28(%rdi),%rax
     8de:	8d 56 ff             	lea    -0x1(%rsi),%edx
     8e1:	48 8b 00             	mov    (%rax),%rax
     8e4:	48 8b 44 d0 08       	mov    0x8(%rax,%rdx,8),%rax
     8e9:	48 8b 10             	mov    (%rax),%rdx
     8ec:	80 ba 41 5e 00 00 00 	cmpb   $0x0,0x5e41(%rdx)
     8f3:	74 e4                	je     8d9 <block_mark_memory_used+0x19>
     8f5:	55                   	push   %rbp
     8f6:	8b 50 10             	mov    0x10(%rax),%edx
     8f9:	83 ea 01             	sub    $0x1,%edx
     8fc:	48 8b 94 d7 48 01 00 	mov    0x148(%rdi,%rdx,8),%rdx
     903:	00 
     904:	48 89 e5             	mov    %rsp,%rbp
     907:	48 8d b8 70 04 00 00 	lea    0x470(%rax),%rdi
     90e:	48 8b 92 a0 00 00 00 	mov    0xa0(%rdx),%rdx
     915:	48 8b 32             	mov    (%rdx),%rsi
     918:	e8 00 00 00 00       	callq  91d <block_mark_memory_used+0x5d>
     91d:	5d                   	pop    %rbp
     91e:	c3                   	retq   
     91f:	90                   	nop

0000000000000920 <block_clear_resident_processor>:
     920:	e8 00 00 00 00       	callq  925 <block_clear_resident_processor+0x5>
     925:	89 f0                	mov    %esi,%eax
     927:	48 0f b3 47 40       	btr    %rax,0x40(%rdi)
     92c:	73 14                	jae    942 <block_clear_resident_processor+0x22>
     92e:	85 f6                	test   %esi,%esi
     930:	74 10                	je     942 <block_clear_resident_processor+0x22>
     932:	48 8b 47 38          	mov    0x38(%rdi),%rax
     936:	48 2b 47 30          	sub    0x30(%rdi),%rax
     93a:	48 3d ff ff 1f 00    	cmp    $0x1fffff,%rax
     940:	74 01                	je     943 <block_clear_resident_processor+0x23>
     942:	c3                   	retq   
     943:	48 8b 47 28          	mov    0x28(%rdi),%rax
     947:	8d 56 ff             	lea    -0x1(%rsi),%edx
     94a:	48 8b 00             	mov    (%rax),%rax
     94d:	48 8b 44 d0 08       	mov    0x8(%rax,%rdx,8),%rax
     952:	48 8b 10             	mov    (%rax),%rdx
     955:	80 ba 41 5e 00 00 00 	cmpb   $0x0,0x5e41(%rdx)
     95c:	74 e4                	je     942 <block_clear_resident_processor+0x22>
     95e:	8b 50 10             	mov    0x10(%rax),%edx
     961:	83 ea 01             	sub    $0x1,%edx
     964:	48 8b 94 d7 48 01 00 	mov    0x148(%rdi,%rdx,8),%rdx
     96b:	00 
     96c:	48 85 d2             	test   %rdx,%rdx
     96f:	74 d1                	je     942 <block_clear_resident_processor+0x22>
     971:	48 8b 92 a0 00 00 00 	mov    0xa0(%rdx),%rdx
     978:	48 8b 32             	mov    (%rdx),%rsi
     97b:	48 85 f6             	test   %rsi,%rsi
     97e:	74 c2                	je     942 <block_clear_resident_processor+0x22>
     980:	55                   	push   %rbp
     981:	48 8d b8 70 04 00 00 	lea    0x470(%rax),%rdi
     988:	48 89 e5             	mov    %rsp,%rbp
     98b:	e8 00 00 00 00       	callq  990 <block_clear_resident_processor+0x70>
     990:	5d                   	pop    %rbp
     991:	c3                   	retq   
     992:	66 66 2e 0f 1f 84 00 	data16 nopw %cs:0x0(%rax,%rax,1)
     999:	00 00 00 00 
     99d:	0f 1f 00             	nopl   (%rax)

00000000000009a0 <block_gpu_write_pde>:
     9a0:	e8 00 00 00 00       	callq  9a5 <block_gpu_write_pde+0x5>
     9a5:	55                   	push   %rbp
     9a6:	48 89 e5             	mov    %rsp,%rbp
     9a9:	41 57                	push   %r15
     9ab:	49 89 cf             	mov    %rcx,%r15
     9ae:	41 56                	push   %r14
     9b0:	49 89 f6             	mov    %rsi,%r14
     9b3:	41 55                	push   %r13
     9b5:	49 89 d5             	mov    %rdx,%r13
     9b8:	41 54                	push   %r12
     9ba:	49 89 fc             	mov    %rdi,%r12
     9bd:	53                   	push   %rbx
     9be:	8b 46 10             	mov    0x10(%rsi),%eax
     9c1:	48 8b 57 28          	mov    0x28(%rdi),%rdx
     9c5:	83 e8 01             	sub    $0x1,%eax
     9c8:	48 8b 9c c7 48 01 00 	mov    0x148(%rdi,%rax,8),%rbx
     9cf:	00 
     9d0:	48 8b 12             	mov    (%rdx),%rdx
     9d3:	48 8b bc c2 40 0b 00 	mov    0xb40(%rdx,%rax,8),%rdi
     9da:	00 
     9db:	48 8b 83 a8 00 00 00 	mov    0xa8(%rbx),%rax
     9e2:	48 83 c7 28          	add    $0x28,%rdi
     9e6:	83 78 18 0a          	cmpl   $0xa,0x18(%rax)
     9ea:	75 06                	jne    9f2 <block_gpu_write_pde+0x52>
     9ec:	49 0f ba 6d 30 02    	btsq   $0x2,0x30(%r13)
     9f2:	48 8d b3 a8 00 00 00 	lea    0xa8(%rbx),%rsi
     9f9:	4c 89 ea             	mov    %r13,%rdx
     9fc:	e8 00 00 00 00       	callq  a01 <block_gpu_write_pde+0x61>
     a01:	49 8b 06             	mov    (%r14),%rax
     a04:	4c 89 ef             	mov    %r13,%rdi
     a07:	48 8b 80 f8 5d 00 00 	mov    0x5df8(%rax),%rax
     a0e:	48 8b 40 08          	mov    0x8(%rax),%rax
     a12:	e8 00 00 00 00       	callq  a17 <block_gpu_write_pde+0x77>
     a17:	49 8b 74 24 30       	mov    0x30(%r12),%rsi
     a1c:	45 31 c0             	xor    %r8d,%r8d
     a1f:	b9 00 00 20 00       	mov    $0x200000,%ecx
     a24:	ba 00 00 20 00       	mov    $0x200000,%edx
     a29:	4c 89 ff             	mov    %r15,%rdi
     a2c:	e8 00 00 00 00       	callq  a31 <block_gpu_write_pde+0x91>
     a31:	48 83 bb c0 00 00 00 	cmpq   $0x0,0xc0(%rbx)
     a38:	00 
     a39:	74 07                	je     a42 <block_gpu_write_pde+0xa2>
     a3b:	c6 83 f0 00 00 00 01 	movb   $0x1,0xf0(%rbx)
     a42:	48 83 bb d8 00 00 00 	cmpq   $0x0,0xd8(%rbx)
     a49:	00 
     a4a:	74 07                	je     a53 <block_gpu_write_pde+0xb3>
     a4c:	c6 83 f1 00 00 00 01 	movb   $0x1,0xf1(%rbx)
     a53:	5b                   	pop    %rbx
     a54:	41 5c                	pop    %r12
     a56:	41 5d                	pop    %r13
     a58:	41 5e                	pop    %r14
     a5a:	41 5f                	pop    %r15
     a5c:	5d                   	pop    %rbp
     a5d:	c3                   	retq   
     a5e:	66 90                	xchg   %ax,%ax

0000000000000a60 <block_split_page_mask>:
     a60:	e8 00 00 00 00       	callq  a65 <block_split_page_mask+0x5>
     a65:	55                   	push   %rbp
     a66:	48 89 e5             	mov    %rsp,%rbp
     a69:	41 55                	push   %r13
     a6b:	49 89 fd             	mov    %rdi,%r13
     a6e:	48 89 d7             	mov    %rdx,%rdi
     a71:	41 54                	push   %r12
     a73:	89 f2                	mov    %esi,%edx
     a75:	49 89 cc             	mov    %rcx,%r12
     a78:	b9 00 02 00 00       	mov    $0x200,%ecx
     a7d:	53                   	push   %rbx
     a7e:	48 89 f3             	mov    %rsi,%rbx
     a81:	4c 89 ee             	mov    %r13,%rsi
     a84:	e8 00 00 00 00       	callq  a89 <block_split_page_mask+0x29>
     a89:	42 8d 34 23          	lea    (%rbx,%r12,1),%esi
     a8d:	4c 89 ef             	mov    %r13,%rdi
     a90:	41 89 f4             	mov    %esi,%r12d
     a93:	0f b7 f3             	movzwl %bx,%esi
     a96:	41 c1 e4 10          	shl    $0x10,%r12d
     a9a:	44 09 e6             	or     %r12d,%esi
     a9d:	e8 ee fa ff ff       	callq  590 <uvm_page_mask_region_clear>
     aa2:	5b                   	pop    %rbx
     aa3:	41 5c                	pop    %r12
     aa5:	41 5d                	pop    %r13
     aa7:	5d                   	pop    %rbp
     aa8:	c3                   	retq   
     aa9:	0f 1f 80 00 00 00 00 	nopl   0x0(%rax)

0000000000000ab0 <uvm_va_space_processor_uuid>:
     ab0:	e8 00 00 00 00       	callq  ab5 <uvm_va_space_processor_uuid+0x5>
     ab5:	55                   	push   %rbp
     ab6:	48 89 e5             	mov    %rsp,%rbp
     ab9:	48 83 e4 f0          	and    $0xfffffffffffffff0,%rsp
     abd:	85 d2                	test   %edx,%edx
     abf:	75 17                	jne    ad8 <uvm_va_space_processor_uuid+0x28>
     ac1:	48 8b 05 00 00 00 00 	mov    0x0(%rip),%rax        # ac8 <uvm_va_space_processor_uuid+0x18>
     ac8:	48 8b 15 00 00 00 00 	mov    0x0(%rip),%rdx        # acf <uvm_va_space_processor_uuid+0x1f>
     acf:	48 89 06             	mov    %rax,(%rsi)
     ad2:	48 89 56 08          	mov    %rdx,0x8(%rsi)
     ad6:	c9                   	leaveq 
     ad7:	c3                   	retq   
     ad8:	8d 42 ff             	lea    -0x1(%rdx),%eax
     adb:	48 8b 44 c7 08       	mov    0x8(%rdi,%rax,8),%rax
     ae0:	48 8b 00             	mov    (%rax),%rax
     ae3:	48 8b 90 98 5c 00 00 	mov    0x5c98(%rax),%rdx
     aea:	48 8b 80 90 5c 00 00 	mov    0x5c90(%rax),%rax
     af1:	48 89 56 08          	mov    %rdx,0x8(%rsi)
     af5:	48 89 06             	mov    %rax,(%rsi)
     af8:	c9                   	leaveq 
     af9:	c3                   	retq   
     afa:	66 0f 1f 44 00 00    	nopw   0x0(%rax,%rax,1)

0000000000000b00 <block_gpu_supports_2m.part.0>:
     b00:	e8 00 00 00 00       	callq  b05 <block_gpu_supports_2m.part.0+0x5>
     b05:	55                   	push   %rbp
     b06:	48 8b 47 28          	mov    0x28(%rdi),%rax
     b0a:	8b 56 10             	mov    0x10(%rsi),%edx
     b0d:	48 8b 00             	mov    (%rax),%rax
     b10:	83 ea 01             	sub    $0x1,%edx
     b13:	48 89 e5             	mov    %rsp,%rbp
     b16:	48 8b 84 d0 40 0b 00 	mov    0xb40(%rax,%rdx,8),%rax
     b1d:	00 
     b1e:	48 8b 40 58          	mov    0x58(%rax),%rax
     b22:	48 8b 40 68          	mov    0x68(%rax),%rax
     b26:	e8 00 00 00 00       	callq  b2b <block_gpu_supports_2m.part.0+0x2b>
     b2b:	5d                   	pop    %rbp
     b2c:	c1 e8 15             	shr    $0x15,%eax
     b2f:	83 e0 01             	and    $0x1,%eax
     b32:	c3                   	retq   
     b33:	66 66 2e 0f 1f 84 00 	data16 nopw %cs:0x0(%rax,%rax,1)
     b3a:	00 00 00 00 
     b3e:	66 90                	xchg   %ax,%ax

0000000000000b40 <block_gpu_needs_to_activate_table>:
     b40:	e8 00 00 00 00       	callq  b45 <block_gpu_needs_to_activate_table+0x5>
     b45:	48 8b 47 38          	mov    0x38(%rdi),%rax
     b49:	48 83 c0 01          	add    $0x1,%rax
     b4d:	48 2b 47 30          	sub    0x30(%rdi),%rax
     b51:	48 3d ff ff 1f 00    	cmp    $0x1fffff,%rax
     b57:	76 47                	jbe    ba0 <block_gpu_needs_to_activate_table+0x60>
     b59:	55                   	push   %rbp
     b5a:	8b 46 10             	mov    0x10(%rsi),%eax
     b5d:	83 e8 01             	sub    $0x1,%eax
     b60:	48 89 e5             	mov    %rsp,%rbp
     b63:	53                   	push   %rbx
     b64:	48 8b 9c c7 48 01 00 	mov    0x148(%rdi,%rax,8),%rbx
     b6b:	00 
     b6c:	e8 8f ff ff ff       	callq  b00 <block_gpu_supports_2m.part.0>
     b71:	84 c0                	test   %al,%al
     b73:	74 26                	je     b9b <block_gpu_needs_to_activate_table+0x5b>
     b75:	48 83 bb c0 00 00 00 	cmpq   $0x0,0xc0(%rbx)
     b7c:	00 
     b7d:	74 09                	je     b88 <block_gpu_needs_to_activate_table+0x48>
     b7f:	80 bb f0 00 00 00 00 	cmpb   $0x0,0xf0(%rbx)
     b86:	74 15                	je     b9d <block_gpu_needs_to_activate_table+0x5d>
     b88:	48 83 bb d8 00 00 00 	cmpq   $0x0,0xd8(%rbx)
     b8f:	00 
     b90:	74 09                	je     b9b <block_gpu_needs_to_activate_table+0x5b>
     b92:	80 bb f1 00 00 00 00 	cmpb   $0x0,0xf1(%rbx)
     b99:	74 02                	je     b9d <block_gpu_needs_to_activate_table+0x5d>
     b9b:	31 c0                	xor    %eax,%eax
     b9d:	5b                   	pop    %rbx
     b9e:	5d                   	pop    %rbp
     b9f:	c3                   	retq   
     ba0:	31 c0                	xor    %eax,%eax
     ba2:	c3                   	retq   
     ba3:	66 66 2e 0f 1f 84 00 	data16 nopw %cs:0x0(%rax,%rax,1)
     baa:	00 00 00 00 
     bae:	66 90                	xchg   %ax,%ax

0000000000000bb0 <block_alloc_ptes_with_retry>:
     bb0:	e8 00 00 00 00       	callq  bb5 <block_alloc_ptes_with_retry+0x5>
     bb5:	55                   	push   %rbp
     bb6:	48 89 e5             	mov    %rsp,%rbp
     bb9:	41 57                	push   %r15
     bbb:	41 56                	push   %r14
     bbd:	41 55                	push   %r13
     bbf:	41 54                	push   %r12
     bc1:	53                   	push   %rbx
     bc2:	48 89 fb             	mov    %rdi,%rbx
     bc5:	48 83 ec 68          	sub    $0x68,%rsp
     bc9:	48 89 75 88          	mov    %rsi,-0x78(%rbp)
     bcd:	89 55 b4             	mov    %edx,-0x4c(%rbp)
     bd0:	48 89 4d 80          	mov    %rcx,-0x80(%rbp)
     bd4:	65 48 8b 04 25 28 00 	mov    %gs:0x28,%rax
     bdb:	00 00 
     bdd:	48 89 45 d0          	mov    %rax,-0x30(%rbp)
     be1:	31 c0                	xor    %eax,%eax
     be3:	8b 46 10             	mov    0x10(%rsi),%eax
     be6:	83 e8 01             	sub    $0x1,%eax
     be9:	48 8b 84 c7 48 01 00 	mov    0x148(%rdi,%rax,8),%rax
     bf0:	00 
     bf1:	48 89 45 a8          	mov    %rax,-0x58(%rbp)
     bf5:	48 8b 47 38          	mov    0x38(%rdi),%rax
     bf9:	48 83 c0 01          	add    $0x1,%rax
     bfd:	48 2b 47 30          	sub    0x30(%rdi),%rax
     c01:	48 3d ff ff 1f 00    	cmp    $0x1fffff,%rax
     c07:	76 0c                	jbe    c15 <block_alloc_ptes_with_retry+0x65>
     c09:	41 89 d6             	mov    %edx,%r14d
     c0c:	e8 ef fe ff ff       	callq  b00 <block_gpu_supports_2m.part.0>
     c11:	84 c0                	test   %al,%al
     c13:	75 33                	jne    c48 <block_alloc_ptes_with_retry+0x98>
     c15:	8b 75 b4             	mov    -0x4c(%rbp),%esi
     c18:	85 f6                	test   %esi,%esi
     c1a:	75 37                	jne    c53 <block_alloc_ptes_with_retry+0xa3>
     c1c:	c7 45 b0 00 00 00 00 	movl   $0x0,-0x50(%rbp)
     c23:	48 8b 45 d0          	mov    -0x30(%rbp),%rax
     c27:	65 48 33 04 25 28 00 	xor    %gs:0x28,%rax
     c2e:	00 00 
     c30:	0f 85 93 03 00 00    	jne    fc9 <block_alloc_ptes_with_retry+0x419>
     c36:	8b 45 b0             	mov    -0x50(%rbp),%eax
     c39:	48 83 c4 68          	add    $0x68,%rsp
     c3d:	5b                   	pop    %rbx
     c3e:	41 5c                	pop    %r12
     c40:	41 5d                	pop    %r13
     c42:	41 5e                	pop    %r14
     c44:	41 5f                	pop    %r15
     c46:	5d                   	pop    %rbp
     c47:	c3                   	retq   
     c48:	41 81 ce 00 00 20 00 	or     $0x200000,%r14d
     c4f:	44 89 75 b4          	mov    %r14d,-0x4c(%rbp)
     c53:	b8 01 00 00 00       	mov    $0x1,%eax
     c58:	8b 4d b4             	mov    -0x4c(%rbp),%ecx
     c5b:	48 0f bd c9          	bsr    %rcx,%rcx
     c5f:	d3 e0                	shl    %cl,%eax
     c61:	41 89 c7             	mov    %eax,%r15d
     c64:	83 f9 16             	cmp    $0x16,%ecx
     c67:	74 b3                	je     c1c <block_alloc_ptes_with_retry+0x6c>
     c69:	48 8b 45 a8          	mov    -0x58(%rbp),%rax
     c6d:	c7 45 b0 00 00 00 00 	movl   $0x0,-0x50(%rbp)
     c74:	48 05 d8 00 00 00    	add    $0xd8,%rax
     c7a:	48 89 45 90          	mov    %rax,-0x70(%rbp)
     c7e:	eb 1f                	jmp    c9f <block_alloc_ptes_with_retry+0xef>
     c80:	41 83 ef 01          	sub    $0x1,%r15d
     c84:	44 23 7d b4          	and    -0x4c(%rbp),%r15d
     c88:	74 99                	je     c23 <block_alloc_ptes_with_retry+0x73>
     c8a:	45 89 ff             	mov    %r15d,%r15d
     c8d:	49 0f bd cf          	bsr    %r15,%rcx
     c91:	41 bf 01 00 00 00    	mov    $0x1,%r15d
     c97:	41 d3 e7             	shl    %cl,%r15d
     c9a:	83 f9 16             	cmp    $0x16,%ecx
     c9d:	74 84                	je     c23 <block_alloc_ptes_with_retry+0x73>
     c9f:	48 8b 45 a8          	mov    -0x58(%rbp),%rax
     ca3:	4c 8d a0 a8 00 00 00 	lea    0xa8(%rax),%r12
     caa:	41 81 ff 00 00 20 00 	cmp    $0x200000,%r15d
     cb1:	74 13                	je     cc6 <block_alloc_ptes_with_retry+0x116>
     cb3:	4c 8d a0 c0 00 00 00 	lea    0xc0(%rax),%r12
     cba:	41 81 ff 00 10 00 00 	cmp    $0x1000,%r15d
     cc1:	4c 0f 44 65 90       	cmove  -0x70(%rbp),%r12
     cc6:	49 83 3c 24 00       	cmpq   $0x0,(%r12)
     ccb:	75 b3                	jne    c80 <block_alloc_ptes_with_retry+0xd0>
     ccd:	48 8b 75 88          	mov    -0x78(%rbp),%rsi
     cd1:	48 8b 53 28          	mov    0x28(%rbx),%rdx
     cd5:	44 89 f9             	mov    %r15d,%ecx
     cd8:	49 89 cd             	mov    %rcx,%r13
     cdb:	8b 46 10             	mov    0x10(%rsi),%eax
     cde:	48 8b 12             	mov    (%rdx),%rdx
     ce1:	49 f7 dd             	neg    %r13
     ce4:	83 e8 01             	sub    $0x1,%eax
     ce7:	48 8b bc c3 48 01 00 	mov    0x148(%rbx,%rax,8),%rdi
     cee:	00 
     cef:	48 8b 84 c2 40 0b 00 	mov    0xb40(%rdx,%rax,8),%rax
     cf6:	00 
     cf7:	48 8b 53 30          	mov    0x30(%rbx),%rdx
     cfb:	48 83 c0 28          	add    $0x28,%rax
     cff:	48 89 7d 98          	mov    %rdi,-0x68(%rbp)
     d03:	48 89 45 a0          	mov    %rax,-0x60(%rbp)
     d07:	48 8b 43 38          	mov    0x38(%rbx),%rax
     d0b:	4c 8d 74 11 ff       	lea    -0x1(%rcx,%rdx,1),%r14
     d10:	8b 0d 00 00 00 00    	mov    0x0(%rip),%ecx        # d16 <block_alloc_ptes_with_retry+0x166>
     d16:	4d 21 ee             	and    %r13,%r14
     d19:	48 83 c0 01          	add    $0x1,%rax
     d1d:	49 21 c5             	and    %rax,%r13
     d20:	48 29 d0             	sub    %rdx,%rax
     d23:	4d 29 f5             	sub    %r14,%r13
     d26:	85 c9                	test   %ecx,%ecx
     d28:	0f 84 53 01 00 00    	je     e81 <block_alloc_ptes_with_retry+0x2d1>
     d2e:	48 8d 93 40 03 00 00 	lea    0x340(%rbx),%rdx
     d35:	48 3d ff ff 1f 00    	cmp    $0x1fffff,%rax
     d3b:	0f 86 9e 01 00 00    	jbe    edf <block_alloc_ptes_with_retry+0x32f>
     d41:	48 89 df             	mov    %rbx,%rdi
     d44:	48 89 95 78 ff ff ff 	mov    %rdx,-0x88(%rbp)
     d4b:	e8 b0 fd ff ff       	callq  b00 <block_gpu_supports_2m.part.0>
     d50:	41 81 ff ff ff 1f 00 	cmp    $0x1fffff,%r15d
     d57:	48 8b 95 78 ff ff ff 	mov    -0x88(%rbp),%rdx
     d5e:	0f 87 7b 01 00 00    	ja     edf <block_alloc_ptes_with_retry+0x32f>
     d64:	84 c0                	test   %al,%al
     d66:	0f 84 73 01 00 00    	je     edf <block_alloc_ptes_with_retry+0x32f>
     d6c:	48 85 d2             	test   %rdx,%rdx
     d6f:	0f 84 85 01 00 00    	je     efa <block_alloc_ptes_with_retry+0x34a>
     d75:	8b 83 40 03 00 00    	mov    0x340(%rbx),%eax
     d7b:	85 c0                	test   %eax,%eax
     d7d:	0f 84 77 01 00 00    	je     efa <block_alloc_ptes_with_retry+0x34a>
     d83:	c7 45 b0 01 00 00 00 	movl   $0x1,-0x50(%rbp)
     d8a:	83 e8 01             	sub    $0x1,%eax
     d8d:	89 83 40 03 00 00    	mov    %eax,0x340(%rbx)
     d93:	48 83 7d 80 00       	cmpq   $0x0,-0x80(%rbp)
     d98:	74 18                	je     db2 <block_alloc_ptes_with_retry+0x202>
     d9a:	48 8b 75 80          	mov    -0x80(%rbp),%rsi
     d9e:	48 8d bb c8 02 00 00 	lea    0x2c8(%rbx),%rdi
     da5:	e8 00 00 00 00       	callq  daa <block_alloc_ptes_with_retry+0x1fa>
     daa:	85 c0                	test   %eax,%eax
     dac:	0f 85 20 01 00 00    	jne    ed2 <block_alloc_ptes_with_retry+0x322>
     db2:	4c 8d 5b 08          	lea    0x8(%rbx),%r11
     db6:	4c 89 df             	mov    %r11,%rdi
     db9:	4c 89 9d 78 ff ff ff 	mov    %r11,-0x88(%rbp)
     dc0:	e8 00 00 00 00       	callq  dc5 <block_alloc_ptes_with_retry+0x215>
     dc5:	8b 55 b0             	mov    -0x50(%rbp),%edx
     dc8:	4c 8b 9d 78 ff ff ff 	mov    -0x88(%rbp),%r11
     dcf:	85 d2                	test   %edx,%edx
     dd1:	0f 84 50 01 00 00    	je     f27 <block_alloc_ptes_with_retry+0x377>
     dd7:	48 8b 45 98          	mov    -0x68(%rbp),%rax
     ddb:	48 8b 7d a0          	mov    -0x60(%rbp),%rdi
     ddf:	4c 8d 45 b8          	lea    -0x48(%rbp),%r8
     de3:	44 89 fe             	mov    %r15d,%esi
     de6:	ba 01 00 00 00       	mov    $0x1,%edx
     deb:	4c 89 9d 78 ff ff ff 	mov    %r11,-0x88(%rbp)
     df2:	48 8d 88 a8 00 00 00 	lea    0xa8(%rax),%rcx
     df9:	4c 89 85 70 ff ff ff 	mov    %r8,-0x90(%rbp)
     e00:	e8 00 00 00 00       	callq  e05 <block_alloc_ptes_with_retry+0x255>
     e05:	4c 8b 9d 78 ff ff ff 	mov    -0x88(%rbp),%r11
     e0c:	4c 89 df             	mov    %r11,%rdi
     e0f:	89 85 78 ff ff ff    	mov    %eax,-0x88(%rbp)
     e15:	e8 00 00 00 00       	callq  e1a <block_alloc_ptes_with_retry+0x26a>
     e1a:	8b 85 78 ff ff ff    	mov    -0x88(%rbp),%eax
     e20:	85 c0                	test   %eax,%eax
     e22:	0f 85 aa 00 00 00    	jne    ed2 <block_alloc_ptes_with_retry+0x322>
     e28:	49 83 3c 24 00       	cmpq   $0x0,(%r12)
     e2d:	0f 85 5d 01 00 00    	jne    f90 <block_alloc_ptes_with_retry+0x3e0>
     e33:	48 8b 45 b8          	mov    -0x48(%rbp),%rax
     e37:	49 89 04 24          	mov    %rax,(%r12)
     e3b:	48 8b 45 c0          	mov    -0x40(%rbp),%rax
     e3f:	49 89 44 24 08       	mov    %rax,0x8(%r12)
     e44:	48 8b 45 c8          	mov    -0x38(%rbp),%rax
     e48:	49 89 44 24 10       	mov    %rax,0x10(%r12)
     e4d:	41 81 ff 00 00 20 00 	cmp    $0x200000,%r15d
     e54:	0f 84 1f 01 00 00    	je     f79 <block_alloc_ptes_with_retry+0x3c9>
     e5a:	41 81 ff 00 10 00 00 	cmp    $0x1000,%r15d
     e61:	74 12                	je     e75 <block_alloc_ptes_with_retry+0x2c5>
     e63:	8b 45 b0             	mov    -0x50(%rbp),%eax
     e66:	85 c0                	test   %eax,%eax
     e68:	75 0b                	jne    e75 <block_alloc_ptes_with_retry+0x2c5>
     e6a:	48 8b 45 98          	mov    -0x68(%rbp),%rax
     e6e:	c6 80 f2 00 00 00 01 	movb   $0x1,0xf2(%rax)
     e75:	c7 45 b0 4d 00 00 00 	movl   $0x4d,-0x50(%rbp)
     e7c:	e9 ff fd ff ff       	jmpq   c80 <block_alloc_ptes_with_retry+0xd0>
     e81:	48 3d ff ff 1f 00    	cmp    $0x1fffff,%rax
     e87:	76 19                	jbe    ea2 <block_alloc_ptes_with_retry+0x2f2>
     e89:	48 8b 75 88          	mov    -0x78(%rbp),%rsi
     e8d:	48 89 df             	mov    %rbx,%rdi
     e90:	e8 6b fc ff ff       	callq  b00 <block_gpu_supports_2m.part.0>
     e95:	41 81 ff ff ff 1f 00 	cmp    $0x1fffff,%r15d
     e9c:	77 04                	ja     ea2 <block_alloc_ptes_with_retry+0x2f2>
     e9e:	84 c0                	test   %al,%al
     ea0:	75 58                	jne    efa <block_alloc_ptes_with_retry+0x34a>
     ea2:	48 8b 7d a0          	mov    -0x60(%rbp),%rdi
     ea6:	45 31 c0             	xor    %r8d,%r8d
     ea9:	4d 89 e1             	mov    %r12,%r9
     eac:	4c 89 e9             	mov    %r13,%rcx
     eaf:	4c 89 f2             	mov    %r14,%rdx
     eb2:	44 89 fe             	mov    %r15d,%esi
     eb5:	e8 00 00 00 00       	callq  eba <block_alloc_ptes_with_retry+0x30a>
     eba:	85 c0                	test   %eax,%eax
     ebc:	0f 84 9e 00 00 00    	je     f60 <block_alloc_ptes_with_retry+0x3b0>
     ec2:	c7 45 b0 00 00 00 00 	movl   $0x0,-0x50(%rbp)
     ec9:	83 f8 51             	cmp    $0x51,%eax
     ecc:	0f 84 c1 fe ff ff    	je     d93 <block_alloc_ptes_with_retry+0x1e3>
     ed2:	83 f8 4d             	cmp    $0x4d,%eax
     ed5:	74 9e                	je     e75 <block_alloc_ptes_with_retry+0x2c5>
     ed7:	89 45 b0             	mov    %eax,-0x50(%rbp)
     eda:	e9 44 fd ff ff       	jmpq   c23 <block_alloc_ptes_with_retry+0x73>
     edf:	48 85 d2             	test   %rdx,%rdx
     ee2:	74 be                	je     ea2 <block_alloc_ptes_with_retry+0x2f2>
     ee4:	8b 83 40 03 00 00    	mov    0x340(%rbx),%eax
     eea:	85 c0                	test   %eax,%eax
     eec:	74 b4                	je     ea2 <block_alloc_ptes_with_retry+0x2f2>
     eee:	c7 45 b0 00 00 00 00 	movl   $0x0,-0x50(%rbp)
     ef5:	e9 90 fe ff ff       	jmpq   d8a <block_alloc_ptes_with_retry+0x1da>
     efa:	48 8b 45 98          	mov    -0x68(%rbp),%rax
     efe:	48 8b 7d a0          	mov    -0x60(%rbp),%rdi
     f02:	31 d2                	xor    %edx,%edx
     f04:	4d 89 e0             	mov    %r12,%r8
     f07:	44 89 fe             	mov    %r15d,%esi
     f0a:	48 8d 88 a8 00 00 00 	lea    0xa8(%rax),%rcx
     f11:	e8 00 00 00 00       	callq  f16 <block_alloc_ptes_with_retry+0x366>
     f16:	85 c0                	test   %eax,%eax
     f18:	0f 84 62 fd ff ff    	je     c80 <block_alloc_ptes_with_retry+0xd0>
     f1e:	c7 45 b0 01 00 00 00 	movl   $0x1,-0x50(%rbp)
     f25:	eb a2                	jmp    ec9 <block_alloc_ptes_with_retry+0x319>
     f27:	48 8d 45 b8          	lea    -0x48(%rbp),%rax
     f2b:	48 8b 7d a0          	mov    -0x60(%rbp),%rdi
     f2f:	4c 89 e9             	mov    %r13,%rcx
     f32:	4c 89 f2             	mov    %r14,%rdx
     f35:	49 89 c1             	mov    %rax,%r9
     f38:	41 b8 01 00 00 00    	mov    $0x1,%r8d
     f3e:	44 89 fe             	mov    %r15d,%esi
     f41:	4c 89 9d 78 ff ff ff 	mov    %r11,-0x88(%rbp)
     f48:	48 89 85 70 ff ff ff 	mov    %rax,-0x90(%rbp)
     f4f:	e8 00 00 00 00       	callq  f54 <block_alloc_ptes_with_retry+0x3a4>
     f54:	4c 8b 9d 78 ff ff ff 	mov    -0x88(%rbp),%r11
     f5b:	e9 ac fe ff ff       	jmpq   e0c <block_alloc_ptes_with_retry+0x25c>
     f60:	41 81 ff 00 00 20 00 	cmp    $0x200000,%r15d
     f67:	75 43                	jne    fac <block_alloc_ptes_with_retry+0x3fc>
     f69:	48 8b 45 98          	mov    -0x68(%rbp),%rax
     f6d:	c6 80 f4 00 00 00 01 	movb   $0x1,0xf4(%rax)
     f74:	e9 07 fd ff ff       	jmpq   c80 <block_alloc_ptes_with_retry+0xd0>
     f79:	48 8b 45 98          	mov    -0x68(%rbp),%rax
     f7d:	c7 45 b0 4d 00 00 00 	movl   $0x4d,-0x50(%rbp)
     f84:	c6 80 f4 00 00 00 01 	movb   $0x1,0xf4(%rax)
     f8b:	e9 f0 fc ff ff       	jmpq   c80 <block_alloc_ptes_with_retry+0xd0>
     f90:	48 8b b5 70 ff ff ff 	mov    -0x90(%rbp),%rsi
     f97:	48 8b 7d a0          	mov    -0x60(%rbp),%rdi
     f9b:	e8 00 00 00 00       	callq  fa0 <block_alloc_ptes_with_retry+0x3f0>
     fa0:	c7 45 b0 4d 00 00 00 	movl   $0x4d,-0x50(%rbp)
     fa7:	e9 d4 fc ff ff       	jmpq   c80 <block_alloc_ptes_with_retry+0xd0>
     fac:	41 81 ff 00 10 00 00 	cmp    $0x1000,%r15d
     fb3:	0f 84 c7 fc ff ff    	je     c80 <block_alloc_ptes_with_retry+0xd0>
     fb9:	48 8b 45 98          	mov    -0x68(%rbp),%rax
     fbd:	c6 80 f2 00 00 00 01 	movb   $0x1,0xf2(%rax)
     fc4:	e9 b7 fc ff ff       	jmpq   c80 <block_alloc_ptes_with_retry+0xd0>
     fc9:	e8 00 00 00 00       	callq  fce <block_alloc_ptes_with_retry+0x41e>
     fce:	66 90                	xchg   %ax,%ax

0000000000000fd0 <uvm_va_block_next_subregion_in_mask.isra.0>:
     fd0:	e8 00 00 00 00       	callq  fd5 <uvm_va_block_next_subregion_in_mask.isra.0+0x5>
     fd5:	55                   	push   %rbp
     fd6:	48 89 e5             	mov    %rsp,%rbp
     fd9:	41 55                	push   %r13
     fdb:	41 54                	push   %r12
     fdd:	53                   	push   %rbx
     fde:	48 85 f6             	test   %rsi,%rsi
     fe1:	74 3f                	je     1022 <uvm_va_block_next_subregion_in_mask.isra.0+0x52>
     fe3:	49 89 f5             	mov    %rsi,%r13
     fe6:	44 0f b7 e7          	movzwl %di,%r12d
     fea:	0f b7 d2             	movzwl %dx,%edx
     fed:	4c 89 e6             	mov    %r12,%rsi
     ff0:	4c 89 ef             	mov    %r13,%rdi
     ff3:	48 83 c2 01          	add    $0x1,%rdx
     ff7:	e8 00 00 00 00       	callq  ffc <uvm_va_block_next_subregion_in_mask.isra.0+0x2c>
     ffc:	4c 89 e6             	mov    %r12,%rsi
     fff:	4c 89 ef             	mov    %r13,%rdi
    1002:	48 89 c3             	mov    %rax,%rbx
    1005:	0f b7 c0             	movzwl %ax,%eax
    1008:	48 8d 50 01          	lea    0x1(%rax),%rdx
    100c:	e8 00 00 00 00       	callq  1011 <uvm_va_block_next_subregion_in_mask.isra.0+0x41>
    1011:	89 c6                	mov    %eax,%esi
    1013:	0f b7 c3             	movzwl %bx,%eax
    1016:	5b                   	pop    %rbx
    1017:	41 5c                	pop    %r12
    1019:	c1 e6 10             	shl    $0x10,%esi
    101c:	41 5d                	pop    %r13
    101e:	5d                   	pop    %rbp
    101f:	09 f0                	or     %esi,%eax
    1021:	c3                   	retq   
    1022:	89 fb                	mov    %edi,%ebx
    1024:	0f b7 c7             	movzwl %di,%eax
    1027:	c1 e3 10             	shl    $0x10,%ebx
    102a:	09 d8                	or     %ebx,%eax
    102c:	5b                   	pop    %rbx
    102d:	41 5c                	pop    %r12
    102f:	41 5d                	pop    %r13
    1031:	5d                   	pop    %rbp
    1032:	c3                   	retq   
    1033:	66 66 2e 0f 1f 84 00 	data16 nopw %cs:0x0(%rax,%rax,1)
    103a:	00 00 00 00 
    103e:	66 90                	xchg   %ax,%ax

0000000000001040 <block_revoke_prot_gpu_perf_notify>:
    1040:	e8 00 00 00 00       	callq  1045 <block_revoke_prot_gpu_perf_notify+0x5>
    1045:	55                   	push   %rbp
    1046:	48 89 e5             	mov    %rsp,%rbp
    1049:	41 57                	push   %r15
    104b:	49 89 ff             	mov    %rdi,%r15
    104e:	41 56                	push   %r14
    1050:	41 55                	push   %r13
    1052:	49 89 d5             	mov    %rdx,%r13
    1055:	41 54                	push   %r12
    1057:	53                   	push   %rbx
    1058:	48 83 c4 80          	add    $0xffffffffffffff80,%rsp
    105c:	48 89 b5 70 ff ff ff 	mov    %rsi,-0x90(%rbp)
    1063:	89 4d 80             	mov    %ecx,-0x80(%rbp)
    1066:	4c 89 85 68 ff ff ff 	mov    %r8,-0x98(%rbp)
    106d:	65 48 8b 04 25 28 00 	mov    %gs:0x28,%rax
    1074:	00 00 
    1076:	48 89 45 d0          	mov    %rax,-0x30(%rbp)
    107a:	31 c0                	xor    %eax,%eax
    107c:	48 8b 47 28          	mov    0x28(%rdi),%rax
    1080:	c7 45 84 02 00 00 00 	movl   $0x2,-0x7c(%rbp)
    1087:	c7 85 64 ff ff ff 00 	movl   $0x0,-0x9c(%rbp)
    108e:	00 00 00 
    1091:	48 8b 00             	mov    (%rax),%rax
    1094:	48 89 85 58 ff ff ff 	mov    %rax,-0xa8(%rbp)
    109b:	8b 42 10             	mov    0x10(%rdx),%eax
    109e:	83 e8 01             	sub    $0x1,%eax
    10a1:	48 8b 84 c7 48 01 00 	mov    0x148(%rdi,%rax,8),%rax
    10a8:	00 
    10a9:	48 89 85 78 ff ff ff 	mov    %rax,-0x88(%rbp)
    10b0:	48 8b 47 38          	mov    0x38(%rdi),%rax
    10b4:	48 83 c0 01          	add    $0x1,%rax
    10b8:	48 2b 47 30          	sub    0x30(%rdi),%rax
    10bc:	48 c1 e8 0c          	shr    $0xc,%rax
    10c0:	89 c3                	mov    %eax,%ebx
    10c2:	89 d8                	mov    %ebx,%eax
    10c4:	c1 e0 10             	shl    $0x10,%eax
    10c7:	89 85 60 ff ff ff    	mov    %eax,-0xa0(%rbp)
    10cd:	eb 04                	jmp    10d3 <block_revoke_prot_gpu_perf_notify+0x93>
    10cf:	83 6d 84 01          	subl   $0x1,-0x7c(%rbp)
    10d3:	8b 7d 80             	mov    -0x80(%rbp),%edi
    10d6:	b8 02 00 00 00       	mov    $0x2,%eax
    10db:	83 ff 03             	cmp    $0x3,%edi
    10de:	74 14                	je     10f4 <block_revoke_prot_gpu_perf_notify+0xb4>
    10e0:	b8 01 00 00 00       	mov    $0x1,%eax
    10e5:	83 ff 02             	cmp    $0x2,%edi
    10e8:	74 0a                	je     10f4 <block_revoke_prot_gpu_perf_notify+0xb4>
    10ea:	83 ff 01             	cmp    $0x1,%edi
    10ed:	74 0e                	je     10fd <block_revoke_prot_gpu_perf_notify+0xbd>
    10ef:	b8 03 00 00 00       	mov    $0x3,%eax
    10f4:	39 45 84             	cmp    %eax,-0x7c(%rbp)
    10f7:	0f 82 1d 01 00 00    	jb     121a <block_revoke_prot_gpu_perf_notify+0x1da>
    10fd:	48 8b 85 70 ff ff ff 	mov    -0x90(%rbp),%rax
    1104:	8b 75 84             	mov    -0x7c(%rbp),%esi
    1107:	b9 00 02 00 00       	mov    $0x200,%ecx
    110c:	48 8b 95 68 ff ff ff 	mov    -0x98(%rbp),%rdx
    1113:	48 83 c6 04          	add    $0x4,%rsi
    1117:	4c 8d 60 40          	lea    0x40(%rax),%r12
    111b:	48 c1 e6 06          	shl    $0x6,%rsi
    111f:	4c 89 e7             	mov    %r12,%rdi
    1122:	48 03 b5 78 ff ff ff 	add    -0x88(%rbp),%rsi
    1129:	e8 00 00 00 00       	callq  112e <block_revoke_prot_gpu_perf_notify+0xee>
    112e:	85 c0                	test   %eax,%eax
    1130:	74 9d                	je     10cf <block_revoke_prot_gpu_perf_notify+0x8f>
    1132:	31 c0                	xor    %eax,%eax
    1134:	83 7d 84 02          	cmpl   $0x2,-0x7c(%rbp)
    1138:	4c 89 e6             	mov    %r12,%rsi
    113b:	0f 94 c0             	sete   %al
    113e:	83 c0 02             	add    $0x2,%eax
    1141:	89 45 94             	mov    %eax,-0x6c(%rbp)
    1144:	0f b7 85 64 ff ff ff 	movzwl -0x9c(%rbp),%eax
    114b:	0b 85 60 ff ff ff    	or     -0xa0(%rbp),%eax
    1151:	89 c7                	mov    %eax,%edi
    1153:	89 85 64 ff ff ff    	mov    %eax,-0x9c(%rbp)
    1159:	e8 32 f3 ff ff       	callq  490 <uvm_va_block_first_subregion_in_mask>
    115e:	89 c1                	mov    %eax,%ecx
    1160:	0f b7 f0             	movzwl %ax,%esi
    1163:	c1 e9 10             	shr    $0x10,%ecx
    1166:	66 39 d8             	cmp    %bx,%ax
    1169:	0f 84 60 ff ff ff    	je     10cf <block_revoke_prot_gpu_perf_notify+0x8f>
    116f:	8b 45 80             	mov    -0x80(%rbp),%eax
    1172:	4d 89 e6             	mov    %r12,%r14
    1175:	41 89 cc             	mov    %ecx,%r12d
    1178:	83 e8 01             	sub    $0x1,%eax
    117b:	89 45 90             	mov    %eax,-0x70(%rbp)
    117e:	48 8b 85 58 ff ff ff 	mov    -0xa8(%rbp),%rax
    1185:	48 05 60 0c 00 00    	add    $0xc60,%rax
    118b:	48 89 45 88          	mov    %rax,-0x78(%rbp)
    118f:	4c 89 e8             	mov    %r13,%rax
    1192:	4d 89 fd             	mov    %r15,%r13
    1195:	49 89 c7             	mov    %rax,%r15
    1198:	31 c0                	xor    %eax,%eax
    119a:	b9 06 00 00 00       	mov    $0x6,%ecx
    119f:	48 8d 7d a0          	lea    -0x60(%rbp),%rdi
    11a3:	0f b7 d6             	movzwl %si,%edx
    11a6:	f3 48 ab             	rep stos %rax,%es:(%rdi)
    11a9:	41 0f b7 c4          	movzwl %r12w,%eax
    11ad:	45 8b 5f 10          	mov    0x10(%r15),%r11d
    11b1:	48 8b 7d 88          	mov    -0x78(%rbp),%rdi
    11b5:	29 f0                	sub    %esi,%eax
    11b7:	48 c1 e2 0c          	shl    $0xc,%rdx
    11bb:	49 03 55 30          	add    0x30(%r13),%rdx
    11bf:	be 07 00 00 00       	mov    $0x7,%esi
    11c4:	48 98                	cltq   
    11c6:	48 89 55 a8          	mov    %rdx,-0x58(%rbp)
    11ca:	48 8d 55 98          	lea    -0x68(%rbp),%rdx
    11ce:	48 c1 e0 0c          	shl    $0xc,%rax
    11d2:	44 89 5d a0          	mov    %r11d,-0x60(%rbp)
    11d6:	48 89 45 b0          	mov    %rax,-0x50(%rbp)
    11da:	8b 45 94             	mov    -0x6c(%rbp),%eax
    11dd:	4c 89 6d 98          	mov    %r13,-0x68(%rbp)
    11e1:	89 45 b8             	mov    %eax,-0x48(%rbp)
    11e4:	8b 45 90             	mov    -0x70(%rbp),%eax
    11e7:	89 45 bc             	mov    %eax,-0x44(%rbp)
    11ea:	e8 00 00 00 00       	callq  11ef <block_revoke_prot_gpu_perf_notify+0x1af>
    11ef:	44 89 e2             	mov    %r12d,%edx
    11f2:	4c 89 f6             	mov    %r14,%rsi
    11f5:	89 df                	mov    %ebx,%edi
    11f7:	e8 d4 fd ff ff       	callq  fd0 <uvm_va_block_next_subregion_in_mask.isra.0>
    11fc:	89 c1                	mov    %eax,%ecx
    11fe:	0f b7 f0             	movzwl %ax,%esi
    1201:	c1 e9 10             	shr    $0x10,%ecx
    1204:	41 89 cc             	mov    %ecx,%r12d
    1207:	66 39 d8             	cmp    %bx,%ax
    120a:	75 8c                	jne    1198 <block_revoke_prot_gpu_perf_notify+0x158>
    120c:	4c 89 f8             	mov    %r15,%rax
    120f:	4d 89 ef             	mov    %r13,%r15
    1212:	49 89 c5             	mov    %rax,%r13
    1215:	e9 b5 fe ff ff       	jmpq   10cf <block_revoke_prot_gpu_perf_notify+0x8f>
    121a:	48 8b 45 d0          	mov    -0x30(%rbp),%rax
    121e:	65 48 33 04 25 28 00 	xor    %gs:0x28,%rax
    1225:	00 00 
    1227:	75 0f                	jne    1238 <block_revoke_prot_gpu_perf_notify+0x1f8>
    1229:	48 83 ec 80          	sub    $0xffffffffffffff80,%rsp
    122d:	5b                   	pop    %rbx
    122e:	41 5c                	pop    %r12
    1230:	41 5d                	pop    %r13
    1232:	41 5e                	pop    %r14
    1234:	41 5f                	pop    %r15
    1236:	5d                   	pop    %rbp
    1237:	c3                   	retq   
    1238:	e8 00 00 00 00       	callq  123d <block_revoke_prot_gpu_perf_notify+0x1fd>
    123d:	0f 1f 00             	nopl   (%rax)

0000000000001240 <block_put_ptes_safe.part.0>:
    1240:	e8 00 00 00 00       	callq  1245 <block_put_ptes_safe.part.0+0x5>
    1245:	55                   	push   %rbp
    1246:	48 89 e5             	mov    %rsp,%rbp
    1249:	53                   	push   %rbx
    124a:	48 89 f3             	mov    %rsi,%rbx
    124d:	e8 00 00 00 00       	callq  1252 <block_put_ptes_safe.part.0+0x12>
    1252:	48 c7 03 00 00 00 00 	movq   $0x0,(%rbx)
    1259:	48 c7 43 08 00 00 00 	movq   $0x0,0x8(%rbx)
    1260:	00 
    1261:	48 c7 43 10 00 00 00 	movq   $0x0,0x10(%rbx)
    1268:	00 
    1269:	5b                   	pop    %rbx
    126a:	5d                   	pop    %rbp
    126b:	c3                   	retq   
    126c:	0f 1f 40 00          	nopl   0x0(%rax)

0000000000001270 <block_gpu_pte_clear_2m>:
    1270:	e8 00 00 00 00       	callq  1275 <block_gpu_pte_clear_2m+0x5>
    1275:	55                   	push   %rbp
    1276:	48 89 e5             	mov    %rsp,%rbp
    1279:	41 57                	push   %r15
    127b:	41 56                	push   %r14
    127d:	41 55                	push   %r13
    127f:	49 89 d5             	mov    %rdx,%r13
    1282:	41 54                	push   %r12
    1284:	49 89 cc             	mov    %rcx,%r12
    1287:	53                   	push   %rbx
    1288:	48 89 fb             	mov    %rdi,%rbx
    128b:	48 83 ec 08          	sub    $0x8,%rsp
    128f:	48 8b 57 28          	mov    0x28(%rdi),%rdx
    1293:	8b 46 10             	mov    0x10(%rsi),%eax
    1296:	48 8b 12             	mov    (%rdx),%rdx
    1299:	83 e8 01             	sub    $0x1,%eax
    129c:	48 8b b4 c7 48 01 00 	mov    0x148(%rdi,%rax,8),%rsi
    12a3:	00 
    12a4:	4c 8b b4 c2 40 0b 00 	mov    0xb40(%rdx,%rax,8),%r14
    12ab:	00 
    12ac:	31 d2                	xor    %edx,%edx
    12ae:	48 81 c6 a8 00 00 00 	add    $0xa8,%rsi
    12b5:	49 8d 7e 28          	lea    0x28(%r14),%rdi
    12b9:	e8 42 ed ff ff       	callq  0 <uvm_page_table_range_entry_address>
    12be:	bf 00 00 20 00       	mov    $0x200000,%edi
    12c3:	49 89 c7             	mov    %rax,%r15
    12c6:	49 8b 46 58          	mov    0x58(%r14),%rax
    12ca:	48 89 14 24          	mov    %rdx,(%rsp)
    12ce:	4c 8b 70 30          	mov    0x30(%rax),%r14
    12d2:	48 8b 40 60          	mov    0x60(%rax),%rax
    12d6:	e8 00 00 00 00       	callq  12db <block_gpu_pte_clear_2m+0x6b>
    12db:	89 c7                	mov    %eax,%edi
    12dd:	e8 00 00 00 00       	callq  12e2 <block_gpu_pte_clear_2m+0x72>
    12e2:	48 8b 14 24          	mov    (%rsp),%rdx
    12e6:	31 c9                	xor    %ecx,%ecx
    12e8:	41 b9 01 00 00 00    	mov    $0x1,%r9d
    12ee:	41 89 c0             	mov    %eax,%r8d
    12f1:	4c 89 fe             	mov    %r15,%rsi
    12f4:	4c 89 ef             	mov    %r13,%rdi
    12f7:	e8 00 00 00 00       	callq  12fc <block_gpu_pte_clear_2m+0x8c>
    12fc:	4d 85 e4             	test   %r12,%r12
    12ff:	74 19                	je     131a <block_gpu_pte_clear_2m+0xaa>
    1301:	48 8b 73 30          	mov    0x30(%rbx),%rsi
    1305:	45 31 c0             	xor    %r8d,%r8d
    1308:	b9 00 00 20 00       	mov    $0x200000,%ecx
    130d:	4c 89 e7             	mov    %r12,%rdi
    1310:	ba 00 00 20 00       	mov    $0x200000,%edx
    1315:	e8 00 00 00 00       	callq  131a <block_gpu_pte_clear_2m+0xaa>
    131a:	48 83 c4 08          	add    $0x8,%rsp
    131e:	5b                   	pop    %rbx
    131f:	41 5c                	pop    %r12
    1321:	41 5d                	pop    %r13
    1323:	41 5e                	pop    %r14
    1325:	41 5f                	pop    %r15
    1327:	5d                   	pop    %rbp
    1328:	c3                   	retq   
    1329:	0f 1f 80 00 00 00 00 	nopl   0x0(%rax)

0000000000001330 <block_gpu_pte_merge_2m>:
    1330:	e8 00 00 00 00       	callq  1335 <block_gpu_pte_merge_2m+0x5>
    1335:	55                   	push   %rbp
    1336:	48 89 e5             	mov    %rsp,%rbp
    1339:	41 57                	push   %r15
    133b:	4c 8d be 30 03 00 00 	lea    0x330(%rsi),%r15
    1342:	41 56                	push   %r14
    1344:	49 89 ce             	mov    %rcx,%r14
    1347:	41 55                	push   %r13
    1349:	49 89 d5             	mov    %rdx,%r13
    134c:	41 54                	push   %r12
    134e:	4c 8d a6 90 03 00 00 	lea    0x390(%rsi),%r12
    1355:	4c 89 fe             	mov    %r15,%rsi
    1358:	53                   	push   %rbx
    1359:	48 89 fb             	mov    %rdi,%rbx
    135c:	48 83 ec 18          	sub    $0x18,%rsp
    1360:	48 8b 4f 28          	mov    0x28(%rdi),%rcx
    1364:	8b 42 10             	mov    0x10(%rdx),%eax
    1367:	44 89 45 c4          	mov    %r8d,-0x3c(%rbp)
    136b:	48 8b 09             	mov    (%rcx),%rcx
    136e:	8d 50 ff             	lea    -0x1(%rax),%edx
    1371:	48 8b 84 d7 48 01 00 	mov    0x148(%rdi,%rdx,8),%rax
    1378:	00 
    1379:	4c 89 f7             	mov    %r14,%rdi
    137c:	4c 8b 84 d1 40 0b 00 	mov    0xb40(%rcx,%rdx,8),%r8
    1383:	00 
    1384:	48 89 45 c8          	mov    %rax,-0x38(%rbp)
    1388:	49 83 c0 28          	add    $0x28,%r8
    138c:	4c 89 45 d0          	mov    %r8,-0x30(%rbp)
    1390:	e8 00 00 00 00       	callq  1395 <block_gpu_pte_merge_2m+0x65>
    1395:	31 c9                	xor    %ecx,%ecx
    1397:	4c 89 fa             	mov    %r15,%rdx
    139a:	4c 89 ee             	mov    %r13,%rsi
    139d:	48 89 df             	mov    %rbx,%rdi
    13a0:	e8 cb fe ff ff       	callq  1270 <block_gpu_pte_clear_2m>
    13a5:	4c 89 ff             	mov    %r15,%rdi
    13a8:	e8 00 00 00 00       	callq  13ad <block_gpu_pte_merge_2m+0x7d>
    13ad:	48 8b 45 c8          	mov    -0x38(%rbp),%rax
    13b1:	4c 8b 45 d0          	mov    -0x30(%rbp),%r8
    13b5:	4c 89 e6             	mov    %r12,%rsi
    13b8:	48 83 b8 c0 00 00 00 	cmpq   $0x1,0xc0(%rax)
    13bf:	01 
    13c0:	4c 89 c7             	mov    %r8,%rdi
    13c3:	45 19 ed             	sbb    %r13d,%r13d
    13c6:	66 45 31 ed          	xor    %r13w,%r13w
    13ca:	41 81 c5 00 00 21 00 	add    $0x210000,%r13d
    13d1:	44 89 ea             	mov    %r13d,%edx
    13d4:	80 ce 10             	or     $0x10,%dh
    13d7:	83 b8 f8 00 00 00 ff 	cmpl   $0xffffffff,0xf8(%rax)
    13de:	44 0f 45 ea          	cmovne %edx,%r13d
    13e2:	e8 00 00 00 00       	callq  13e7 <block_gpu_pte_merge_2m+0xb7>
    13e7:	48 8b 73 30          	mov    0x30(%rbx),%rsi
    13eb:	4c 89 e7             	mov    %r12,%rdi
    13ee:	45 31 c0             	xor    %r8d,%r8d
    13f1:	44 89 e9             	mov    %r13d,%ecx
    13f4:	ba 00 00 20 00       	mov    $0x200000,%edx
    13f9:	e8 00 00 00 00       	callq  13fe <block_gpu_pte_merge_2m+0xce>
    13fe:	44 8b 4d c4          	mov    -0x3c(%rbp),%r9d
    1402:	4c 89 f6             	mov    %r14,%rsi
    1405:	4c 89 e7             	mov    %r12,%rdi
    1408:	44 89 ca             	mov    %r9d,%edx
    140b:	e8 00 00 00 00       	callq  1410 <block_gpu_pte_merge_2m+0xe0>
    1410:	48 83 c4 18          	add    $0x18,%rsp
    1414:	5b                   	pop    %rbx
    1415:	41 5c                	pop    %r12
    1417:	41 5d                	pop    %r13
    1419:	41 5e                	pop    %r14
    141b:	41 5f                	pop    %r15
    141d:	5d                   	pop    %rbp
    141e:	c3                   	retq   
    141f:	90                   	nop

0000000000001420 <block_gpu_pte_finish_split_2m>:
    1420:	e8 00 00 00 00       	callq  1425 <block_gpu_pte_finish_split_2m+0x5>
    1425:	55                   	push   %rbp
    1426:	48 89 e5             	mov    %rsp,%rbp
    1429:	41 57                	push   %r15
    142b:	49 89 f7             	mov    %rsi,%r15
    142e:	41 56                	push   %r14
    1430:	41 55                	push   %r13
    1432:	49 89 d5             	mov    %rdx,%r13
    1435:	41 54                	push   %r12
    1437:	4d 89 c4             	mov    %r8,%r12
    143a:	53                   	push   %rbx
    143b:	48 89 fb             	mov    %rdi,%rbx
    143e:	48 83 ec 10          	sub    $0x10,%rsp
    1442:	48 8b 47 28          	mov    0x28(%rdi),%rax
    1446:	8b 56 10             	mov    0x10(%rsi),%edx
    1449:	48 89 4d d0          	mov    %rcx,-0x30(%rbp)
    144d:	44 89 4d cc          	mov    %r9d,-0x34(%rbp)
    1451:	48 8b 00             	mov    (%rax),%rax
    1454:	83 ea 01             	sub    $0x1,%edx
    1457:	4c 8b b4 d0 40 0b 00 	mov    0xb40(%rax,%rdx,8),%r14
    145e:	00 
    145f:	31 d2                	xor    %edx,%edx
    1461:	49 83 c6 28          	add    $0x28,%r14
    1465:	e8 46 ec ff ff       	callq  b0 <block_page_prot_gpu>
    146a:	85 c0                	test   %eax,%eax
    146c:	75 41                	jne    14af <block_gpu_pte_finish_split_2m+0x8f>
    146e:	48 8b 7d d0          	mov    -0x30(%rbp),%rdi
    1472:	e8 00 00 00 00       	callq  1477 <block_gpu_pte_finish_split_2m+0x57>
    1477:	4c 89 e6             	mov    %r12,%rsi
    147a:	4c 89 f7             	mov    %r14,%rdi
    147d:	e8 00 00 00 00       	callq  1482 <block_gpu_pte_finish_split_2m+0x62>
    1482:	4c 89 e1             	mov    %r12,%rcx
    1485:	4c 89 ea             	mov    %r13,%rdx
    1488:	4c 89 fe             	mov    %r15,%rsi
    148b:	48 89 df             	mov    %rbx,%rdi
    148e:	e8 0d f5 ff ff       	callq  9a0 <block_gpu_write_pde>
    1493:	4c 89 ee             	mov    %r13,%rsi
    1496:	4c 89 e7             	mov    %r12,%rdi
    1499:	31 d2                	xor    %edx,%edx
    149b:	e8 00 00 00 00       	callq  14a0 <block_gpu_pte_finish_split_2m+0x80>
    14a0:	48 83 c4 10          	add    $0x10,%rsp
    14a4:	5b                   	pop    %rbx
    14a5:	41 5c                	pop    %r12
    14a7:	41 5d                	pop    %r13
    14a9:	41 5e                	pop    %r14
    14ab:	41 5f                	pop    %r15
    14ad:	5d                   	pop    %rbp
    14ae:	c3                   	retq   
    14af:	4c 89 e6             	mov    %r12,%rsi
    14b2:	4c 89 f7             	mov    %r14,%rdi
    14b5:	e8 00 00 00 00       	callq  14ba <block_gpu_pte_finish_split_2m+0x9a>
    14ba:	48 8b 55 d0          	mov    -0x30(%rbp),%rdx
    14be:	4c 89 fe             	mov    %r15,%rsi
    14c1:	4c 89 e1             	mov    %r12,%rcx
    14c4:	48 89 df             	mov    %rbx,%rdi
    14c7:	e8 a4 fd ff ff       	callq  1270 <block_gpu_pte_clear_2m>
    14cc:	48 8b 7d d0          	mov    -0x30(%rbp),%rdi
    14d0:	e8 00 00 00 00       	callq  14d5 <block_gpu_pte_finish_split_2m+0xb5>
    14d5:	8b 55 cc             	mov    -0x34(%rbp),%edx
    14d8:	4c 89 ee             	mov    %r13,%rsi
    14db:	4c 89 e7             	mov    %r12,%rdi
    14de:	e8 00 00 00 00       	callq  14e3 <block_gpu_pte_finish_split_2m+0xc3>
    14e3:	eb 92                	jmp    1477 <block_gpu_pte_finish_split_2m+0x57>
    14e5:	66 66 2e 0f 1f 84 00 	data16 nopw %cs:0x0(%rax,%rax,1)
    14ec:	00 00 00 00 

00000000000014f0 <block_merge_chunk.isra.0>:
    14f0:	e8 00 00 00 00       	callq  14f5 <block_merge_chunk.isra.0+0x5>
    14f5:	55                   	push   %rbp
    14f6:	48 89 e5             	mov    %rsp,%rbp
    14f9:	41 57                	push   %r15
    14fb:	41 56                	push   %r14
    14fd:	4c 8d b6 70 04 00 00 	lea    0x470(%rsi),%r14
    1504:	41 55                	push   %r13
    1506:	49 89 f5             	mov    %rsi,%r13
    1509:	48 89 d6             	mov    %rdx,%rsi
    150c:	41 54                	push   %r12
    150e:	53                   	push   %rbx
    150f:	4c 8b 27             	mov    (%rdi),%r12
    1512:	4c 89 f7             	mov    %r14,%rdi
    1515:	48 89 d3             	mov    %rdx,%rbx
    1518:	e8 00 00 00 00       	callq  151d <block_merge_chunk.isra.0+0x2d>
    151d:	41 8b 45 10          	mov    0x10(%r13),%eax
    1521:	ba 01 00 00 00       	mov    $0x1,%edx
    1526:	be 21 00 00 00       	mov    $0x21,%esi
    152b:	49 8d bc c4 18 08 00 	lea    0x818(%r12,%rax,8),%rdi
    1532:	00 
    1533:	e8 00 00 00 00       	callq  1538 <block_merge_chunk.isra.0+0x48>
    1538:	83 f8 21             	cmp    $0x21,%eax
    153b:	74 57                	je     1594 <block_merge_chunk.isra.0+0xa4>
    153d:	83 e8 01             	sub    $0x1,%eax
    1540:	4d 8b 7c c4 08       	mov    0x8(%r12,%rax,8),%r15
    1545:	4d 85 ff             	test   %r15,%r15
    1548:	74 4a                	je     1594 <block_merge_chunk.isra.0+0xa4>
    154a:	4c 89 fa             	mov    %r15,%rdx
    154d:	48 89 de             	mov    %rbx,%rsi
    1550:	4c 89 f7             	mov    %r14,%rdi
    1553:	e8 00 00 00 00       	callq  1558 <block_merge_chunk.isra.0+0x68>
    1558:	0f b6 4b 09          	movzbl 0x9(%rbx),%ecx
    155c:	ba 01 00 00 00       	mov    $0x1,%edx
    1561:	49 8d bf f0 09 00 00 	lea    0x9f0(%r15),%rdi
    1568:	48 89 c6             	mov    %rax,%rsi
    156b:	d3 e2                	shl    %cl,%edx
    156d:	e8 00 00 00 00       	callq  1572 <block_merge_chunk.isra.0+0x82>
    1572:	41 8b 47 10          	mov    0x10(%r15),%eax
    1576:	be 21 00 00 00       	mov    $0x21,%esi
    157b:	8d 50 01             	lea    0x1(%rax),%edx
    157e:	41 8b 45 10          	mov    0x10(%r13),%eax
    1582:	49 8d bc c4 18 08 00 	lea    0x818(%r12,%rax,8),%rdi
    1589:	00 
    158a:	e8 00 00 00 00       	callq  158f <block_merge_chunk.isra.0+0x9f>
    158f:	83 f8 21             	cmp    $0x21,%eax
    1592:	75 a9                	jne    153d <block_merge_chunk.isra.0+0x4d>
    1594:	5b                   	pop    %rbx
    1595:	41 5c                	pop    %r12
    1597:	41 5d                	pop    %r13
    1599:	41 5e                	pop    %r14
    159b:	41 5f                	pop    %r15
    159d:	5d                   	pop    %rbp
    159e:	c3                   	retq   
    159f:	90                   	nop

00000000000015a0 <uvm_va_block_retry_deinit.part.0>:
    15a0:	e8 00 00 00 00       	callq  15a5 <uvm_va_block_retry_deinit.part.0+0x5>
    15a5:	55                   	push   %rbp
    15a6:	48 89 e5             	mov    %rsp,%rbp
    15a9:	41 57                	push   %r15
    15ab:	41 56                	push   %r14
    15ad:	41 55                	push   %r13
    15af:	49 89 fd             	mov    %rdi,%r13
    15b2:	41 54                	push   %r12
    15b4:	4d 8d 75 18          	lea    0x18(%r13),%r14
    15b8:	53                   	push   %rbx
    15b9:	48 89 f3             	mov    %rsi,%rbx
    15bc:	e8 00 00 00 00       	callq  15c1 <uvm_va_block_retry_deinit.part.0+0x21>
    15c1:	49 8b 45 18          	mov    0x18(%r13),%rax
    15c5:	48 8b 10             	mov    (%rax),%rdx
    15c8:	4c 8d 60 f0          	lea    -0x10(%rax),%r12
    15cc:	4c 8d 7a f0          	lea    -0x10(%rdx),%r15
    15d0:	4c 39 f0             	cmp    %r14,%rax
    15d3:	74 44                	je     1619 <uvm_va_block_retry_deinit.part.0+0x79>
    15d5:	49 8b 4c 24 18       	mov    0x18(%r12),%rcx
    15da:	4c 89 e7             	mov    %r12,%rdi
    15dd:	48 89 4a 08          	mov    %rcx,0x8(%rdx)
    15e1:	48 89 11             	mov    %rdx,(%rcx)
    15e4:	49 89 44 24 10       	mov    %rax,0x10(%r12)
    15e9:	49 89 44 24 18       	mov    %rax,0x18(%r12)
    15ee:	e8 00 00 00 00       	callq  15f3 <uvm_va_block_retry_deinit.part.0+0x53>
    15f3:	31 d2                	xor    %edx,%edx
    15f5:	4c 89 e6             	mov    %r12,%rsi
    15f8:	4d 89 fc             	mov    %r15,%r12
    15fb:	48 8d b8 70 04 00 00 	lea    0x470(%rax),%rdi
    1602:	e8 00 00 00 00       	callq  1607 <uvm_va_block_retry_deinit.part.0+0x67>
    1607:	49 8b 57 10          	mov    0x10(%r15),%rdx
    160b:	49 8d 44 24 10       	lea    0x10(%r12),%rax
    1610:	4c 8d 7a f0          	lea    -0x10(%rdx),%r15
    1614:	4c 39 f0             	cmp    %r14,%rax
    1617:	75 bc                	jne    15d5 <uvm_va_block_retry_deinit.part.0+0x35>
    1619:	49 8b 45 28          	mov    0x28(%r13),%rax
    161d:	4d 8d 75 28          	lea    0x28(%r13),%r14
    1621:	48 8b 10             	mov    (%rax),%rdx
    1624:	4c 8d 60 f0          	lea    -0x10(%rax),%r12
    1628:	4c 8d 7a f0          	lea    -0x10(%rdx),%r15
    162c:	4c 39 f0             	cmp    %r14,%rax
    162f:	74 45                	je     1676 <uvm_va_block_retry_deinit.part.0+0xd6>
    1631:	49 8b 4c 24 18       	mov    0x18(%r12),%rcx
    1636:	4c 89 e7             	mov    %r12,%rdi
    1639:	48 89 4a 08          	mov    %rcx,0x8(%rdx)
    163d:	48 89 11             	mov    %rdx,(%rcx)
    1640:	49 89 44 24 10       	mov    %rax,0x10(%r12)
    1645:	49 89 44 24 18       	mov    %rax,0x18(%r12)
    164a:	e8 00 00 00 00       	callq  164f <uvm_va_block_retry_deinit.part.0+0xaf>
    164f:	48 89 da             	mov    %rbx,%rdx
    1652:	4c 89 e6             	mov    %r12,%rsi
    1655:	4d 89 fc             	mov    %r15,%r12
    1658:	48 8d b8 70 04 00 00 	lea    0x470(%rax),%rdi
    165f:	e8 00 00 00 00       	callq  1664 <uvm_va_block_retry_deinit.part.0+0xc4>
    1664:	49 8b 57 10          	mov    0x10(%r15),%rdx
    1668:	49 8d 44 24 10       	lea    0x10(%r12),%rax
    166d:	4c 8d 7a f0          	lea    -0x10(%rdx),%r15
    1671:	4c 39 f0             	cmp    %r14,%rax
    1674:	75 bb                	jne    1631 <uvm_va_block_retry_deinit.part.0+0x91>
    1676:	49 8b 45 38          	mov    0x38(%r13),%rax
    167a:	4d 8d 75 38          	lea    0x38(%r13),%r14
    167e:	48 8b 10             	mov    (%rax),%rdx
    1681:	4c 8d 60 f0          	lea    -0x10(%rax),%r12
    1685:	4c 8d 7a f0          	lea    -0x10(%rdx),%r15
    1689:	4c 39 f0             	cmp    %r14,%rax
    168c:	74 45                	je     16d3 <uvm_va_block_retry_deinit.part.0+0x133>
    168e:	49 8b 4c 24 18       	mov    0x18(%r12),%rcx
    1693:	4c 89 e7             	mov    %r12,%rdi
    1696:	48 89 4a 08          	mov    %rcx,0x8(%rdx)
    169a:	48 89 11             	mov    %rdx,(%rcx)
    169d:	49 89 44 24 10       	mov    %rax,0x10(%r12)
    16a2:	49 89 44 24 18       	mov    %rax,0x18(%r12)
    16a7:	e8 00 00 00 00       	callq  16ac <uvm_va_block_retry_deinit.part.0+0x10c>
    16ac:	48 89 da             	mov    %rbx,%rdx
    16af:	4c 89 e6             	mov    %r12,%rsi
    16b2:	4d 89 fc             	mov    %r15,%r12
    16b5:	48 8d b8 70 04 00 00 	lea    0x470(%rax),%rdi
    16bc:	e8 00 00 00 00       	callq  16c1 <uvm_va_block_retry_deinit.part.0+0x121>
    16c1:	49 8b 57 10          	mov    0x10(%r15),%rdx
    16c5:	49 8d 44 24 10       	lea    0x10(%r12),%rax
    16ca:	4c 8d 7a f0          	lea    -0x10(%rdx),%r15
    16ce:	4c 39 f0             	cmp    %r14,%rax
    16d1:	75 bb                	jne    168e <uvm_va_block_retry_deinit.part.0+0xee>
    16d3:	49 8b 45 48          	mov    0x48(%r13),%rax
    16d7:	49 83 c5 48          	add    $0x48,%r13
    16db:	48 8b 10             	mov    (%rax),%rdx
    16de:	4c 8d 60 f0          	lea    -0x10(%rax),%r12
    16e2:	4c 8d 72 f0          	lea    -0x10(%rdx),%r14
    16e6:	4c 39 e8             	cmp    %r13,%rax
    16e9:	74 45                	je     1730 <uvm_va_block_retry_deinit.part.0+0x190>
    16eb:	49 8b 4c 24 18       	mov    0x18(%r12),%rcx
    16f0:	4c 89 e7             	mov    %r12,%rdi
    16f3:	48 89 4a 08          	mov    %rcx,0x8(%rdx)
    16f7:	48 89 11             	mov    %rdx,(%rcx)
    16fa:	49 89 44 24 10       	mov    %rax,0x10(%r12)
    16ff:	49 89 44 24 18       	mov    %rax,0x18(%r12)
    1704:	e8 00 00 00 00       	callq  1709 <uvm_va_block_retry_deinit.part.0+0x169>
    1709:	48 89 da             	mov    %rbx,%rdx
    170c:	4c 89 e6             	mov    %r12,%rsi
    170f:	4d 89 f4             	mov    %r14,%r12
    1712:	48 8d b8 70 04 00 00 	lea    0x470(%rax),%rdi
    1719:	e8 00 00 00 00       	callq  171e <uvm_va_block_retry_deinit.part.0+0x17e>
    171e:	49 8b 56 10          	mov    0x10(%r14),%rdx
    1722:	49 8d 44 24 10       	lea    0x10(%r12),%rax
    1727:	4c 8d 72 f0          	lea    -0x10(%rdx),%r14
    172b:	4c 39 e8             	cmp    %r13,%rax
    172e:	75 bb                	jne    16eb <uvm_va_block_retry_deinit.part.0+0x14b>
    1730:	5b                   	pop    %rbx
    1731:	41 5c                	pop    %r12
    1733:	41 5d                	pop    %r13
    1735:	41 5e                	pop    %r14
    1737:	41 5f                	pop    %r15
    1739:	5d                   	pop    %rbp
    173a:	c3                   	retq   
    173b:	0f 1f 44 00 00       	nopl   0x0(%rax,%rax,1)

0000000000001740 <uvm_va_block_context_free.part.0>:
    1740:	e8 00 00 00 00       	callq  1745 <uvm_va_block_context_free.part.0+0x5>
    1745:	55                   	push   %rbp
    1746:	48 89 fe             	mov    %rdi,%rsi
    1749:	48 8b 3d 00 00 00 00 	mov    0x0(%rip),%rdi        # 1750 <uvm_va_block_context_free.part.0+0x10>
    1750:	48 89 e5             	mov    %rsp,%rbp
    1753:	e8 00 00 00 00       	callq  1758 <uvm_va_block_context_free.part.0+0x18>
    1758:	5d                   	pop    %rbp
    1759:	c3                   	retq   
    175a:	66 0f 1f 44 00 00    	nopw   0x0(%rax,%rax,1)

0000000000001760 <uvm_va_block_gpu_big_page_size.part.0>:
    1760:	e8 00 00 00 00       	callq  1765 <uvm_va_block_gpu_big_page_size.part.0+0x5>
    1765:	55                   	push   %rbp
    1766:	48 8b 47 28          	mov    0x28(%rdi),%rax
    176a:	8b 56 10             	mov    0x10(%rsi),%edx
    176d:	48 8b 00             	mov    (%rax),%rax
    1770:	83 ea 01             	sub    $0x1,%edx
    1773:	48 89 e5             	mov    %rsp,%rbp
    1776:	5d                   	pop    %rbp
    1777:	48 8b 84 d0 40 0b 00 	mov    0xb40(%rax,%rdx,8),%rax
    177e:	00 
    177f:	8b 40 64             	mov    0x64(%rax),%eax
    1782:	c3                   	retq   
    1783:	66 66 2e 0f 1f 84 00 	data16 nopw %cs:0x0(%rax,%rax,1)
    178a:	00 00 00 00 
    178e:	66 90                	xchg   %ax,%ax

0000000000001790 <block_alloc_ptes_new_state>:
    1790:	e8 00 00 00 00       	callq  1795 <block_alloc_ptes_new_state+0x5>
    1795:	55                   	push   %rbp
    1796:	48 89 e5             	mov    %rsp,%rbp
    1799:	53                   	push   %rbx
    179a:	48 89 d3             	mov    %rdx,%rbx
    179d:	ba 00 00 20 00       	mov    $0x200000,%edx
    17a2:	48 83 ec 18          	sub    $0x18,%rsp
    17a6:	80 3b 00             	cmpb   $0x0,(%rbx)
    17a9:	75 3d                	jne    17e8 <block_alloc_ptes_new_state+0x58>
    17ab:	8b 43 08             	mov    0x8(%rbx),%eax
    17ae:	31 d2                	xor    %edx,%edx
    17b0:	85 c0                	test   %eax,%eax
    17b2:	74 2b                	je     17df <block_alloc_ptes_new_state+0x4f>
    17b4:	48 8b 06             	mov    (%rsi),%rax
    17b7:	80 b8 28 5e 00 00 00 	cmpb   $0x0,0x5e28(%rax)
    17be:	75 34                	jne    17f4 <block_alloc_ptes_new_state+0x64>
    17c0:	48 89 4d e0          	mov    %rcx,-0x20(%rbp)
    17c4:	48 89 75 e8          	mov    %rsi,-0x18(%rbp)
    17c8:	48 89 7d f0          	mov    %rdi,-0x10(%rbp)
    17cc:	e8 8f ff ff ff       	callq  1760 <uvm_va_block_gpu_big_page_size.part.0>
    17d1:	48 8b 4d e0          	mov    -0x20(%rbp),%rcx
    17d5:	48 8b 75 e8          	mov    -0x18(%rbp),%rsi
    17d9:	48 8b 7d f0          	mov    -0x10(%rbp),%rdi
    17dd:	89 c2                	mov    %eax,%edx
    17df:	80 7b 01 00          	cmpb   $0x0,0x1(%rbx)
    17e3:	74 03                	je     17e8 <block_alloc_ptes_new_state+0x58>
    17e5:	80 ce 10             	or     $0x10,%dh
    17e8:	e8 c3 f3 ff ff       	callq  bb0 <block_alloc_ptes_with_retry>
    17ed:	48 83 c4 18          	add    $0x18,%rsp
    17f1:	5b                   	pop    %rbx
    17f2:	5d                   	pop    %rbp
    17f3:	c3                   	retq   
    17f4:	8b 56 30             	mov    0x30(%rsi),%edx
    17f7:	eb e6                	jmp    17df <block_alloc_ptes_new_state+0x4f>
    17f9:	0f 1f 80 00 00 00 00 	nopl   0x0(%rax)

0000000000001800 <block_gpu_pte_clear_4k.constprop.0>:
    1800:	e8 00 00 00 00       	callq  1805 <block_gpu_pte_clear_4k.constprop.0+0x5>
    1805:	55                   	push   %rbp
    1806:	48 89 e5             	mov    %rsp,%rbp
    1809:	41 57                	push   %r15
    180b:	49 89 ff             	mov    %rdi,%r15
    180e:	41 56                	push   %r14
    1810:	49 89 d6             	mov    %rdx,%r14
    1813:	41 55                	push   %r13
    1815:	4d 89 c5             	mov    %r8,%r13
    1818:	41 54                	push   %r12
    181a:	53                   	push   %rbx
    181b:	48 83 ec 38          	sub    $0x38,%rsp
    181f:	8b 46 10             	mov    0x10(%rsi),%eax
    1822:	48 89 54 24 18       	mov    %rdx,0x18(%rsp)
    1827:	48 8b 57 28          	mov    0x28(%rdi),%rdx
    182b:	83 e8 01             	sub    $0x1,%eax
    182e:	48 89 4c 24 10       	mov    %rcx,0x10(%rsp)
    1833:	48 8b 12             	mov    (%rdx),%rdx
    1836:	48 8b 9c c7 48 01 00 	mov    0x148(%rdi,%rax,8),%rbx
    183d:	00 
    183e:	48 89 7c 24 08       	mov    %rdi,0x8(%rsp)
    1843:	bf 00 10 00 00       	mov    $0x1000,%edi
    1848:	48 8b 84 c2 40 0b 00 	mov    0xb40(%rdx,%rax,8),%rax
    184f:	00 
    1850:	48 8d 48 28          	lea    0x28(%rax),%rcx
    1854:	48 8b 40 58          	mov    0x58(%rax),%rax
    1858:	48 89 4c 24 30       	mov    %rcx,0x30(%rsp)
    185d:	4c 8b 60 30          	mov    0x30(%rax),%r12
    1861:	48 8b 40 60          	mov    0x60(%rax),%rax
    1865:	e8 00 00 00 00       	callq  186a <block_gpu_pte_clear_4k.constprop.0+0x6a>
    186a:	89 c7                	mov    %eax,%edi
    186c:	e8 00 00 00 00       	callq  1871 <block_gpu_pte_clear_4k.constprop.0+0x71>
    1871:	4c 89 f6             	mov    %r14,%rsi
    1874:	89 44 24 2c          	mov    %eax,0x2c(%rsp)
    1878:	49 8b 47 38          	mov    0x38(%r15),%rax
    187c:	48 8d 48 01          	lea    0x1(%rax),%rcx
    1880:	49 2b 4f 30          	sub    0x30(%r15),%rcx
    1884:	48 89 44 24 20       	mov    %rax,0x20(%rsp)
    1889:	48 c1 e9 0c          	shr    $0xc,%rcx
    188d:	89 cf                	mov    %ecx,%edi
    188f:	48 89 0c 24          	mov    %rcx,(%rsp)
    1893:	41 89 cc             	mov    %ecx,%r12d
    1896:	c1 e7 10             	shl    $0x10,%edi
    1899:	e8 f2 eb ff ff       	callq  490 <uvm_va_block_first_subregion_in_mask>
    189e:	48 8d 8b d8 00 00 00 	lea    0xd8(%rbx),%rcx
    18a5:	48 89 4c 24 20       	mov    %rcx,0x20(%rsp)
    18aa:	48 8b 0c 24          	mov    (%rsp),%rcx
    18ae:	89 c7                	mov    %eax,%edi
    18b0:	c1 ef 10             	shr    $0x10,%edi
    18b3:	66 39 c1             	cmp    %ax,%cx
    18b6:	0f 84 91 00 00 00    	je     194d <block_gpu_pte_clear_4k.constprop.0+0x14d>
    18bc:	89 c2                	mov    %eax,%edx
    18be:	41 89 fe             	mov    %edi,%r14d
    18c1:	48 8b 74 24 20       	mov    0x20(%rsp),%rsi
    18c6:	44 0f b7 fa          	movzwl %dx,%r15d
    18ca:	0f b7 c2             	movzwl %dx,%eax
    18cd:	41 0f b7 de          	movzwl %r14w,%ebx
    18d1:	48 8b 7c 24 30       	mov    0x30(%rsp),%rdi
    18d6:	4c 89 fa             	mov    %r15,%rdx
    18d9:	29 c3                	sub    %eax,%ebx
    18db:	e8 20 e7 ff ff       	callq  0 <uvm_page_table_range_entry_address>
    18e0:	44 8b 44 24 2c       	mov    0x2c(%rsp),%r8d
    18e5:	31 c9                	xor    %ecx,%ecx
    18e7:	41 89 d9             	mov    %ebx,%r9d
    18ea:	48 8b 7c 24 10       	mov    0x10(%rsp),%rdi
    18ef:	48 89 c6             	mov    %rax,%rsi
    18f2:	e8 00 00 00 00       	callq  18f7 <block_gpu_pte_clear_4k.constprop.0+0xf7>
    18f7:	4d 85 ed             	test   %r13,%r13
    18fa:	74 2d                	je     1929 <block_gpu_pte_clear_4k.constprop.0+0x129>
    18fc:	48 8b 44 24 08       	mov    0x8(%rsp),%rax
    1901:	4c 63 cb             	movslq %ebx,%r9
    1904:	4c 89 fa             	mov    %r15,%rdx
    1907:	45 31 c0             	xor    %r8d,%r8d
    190a:	48 c1 e2 0c          	shl    $0xc,%rdx
    190e:	49 c1 e1 0c          	shl    $0xc,%r9
    1912:	b9 00 10 00 00       	mov    $0x1000,%ecx
    1917:	4c 89 ef             	mov    %r13,%rdi
    191a:	48 8b 70 30          	mov    0x30(%rax),%rsi
    191e:	48 01 d6             	add    %rdx,%rsi
    1921:	4c 89 ca             	mov    %r9,%rdx
    1924:	e8 00 00 00 00       	callq  1929 <block_gpu_pte_clear_4k.constprop.0+0x129>
    1929:	48 8b 74 24 18       	mov    0x18(%rsp),%rsi
    192e:	44 89 f2             	mov    %r14d,%edx
    1931:	44 89 e7             	mov    %r12d,%edi
    1934:	e8 97 f6 ff ff       	callq  fd0 <uvm_va_block_next_subregion_in_mask.isra.0>
    1939:	89 c1                	mov    %eax,%ecx
    193b:	89 c2                	mov    %eax,%edx
    193d:	c1 e9 10             	shr    $0x10,%ecx
    1940:	41 89 ce             	mov    %ecx,%r14d
    1943:	66 41 39 c4          	cmp    %ax,%r12w
    1947:	0f 85 74 ff ff ff    	jne    18c1 <block_gpu_pte_clear_4k.constprop.0+0xc1>
    194d:	48 83 c4 38          	add    $0x38,%rsp
    1951:	5b                   	pop    %rbx
    1952:	41 5c                	pop    %r12
    1954:	41 5d                	pop    %r13
    1956:	41 5e                	pop    %r14
    1958:	41 5f                	pop    %r15
    195a:	5d                   	pop    %rbp
    195b:	c3                   	retq   
    195c:	0f 1f 40 00          	nopl   0x0(%rax)

0000000000001960 <block_set_processor_masks>:
    1960:	e8 00 00 00 00       	callq  1965 <block_set_processor_masks+0x5>
    1965:	55                   	push   %rbp
    1966:	31 d2                	xor    %edx,%edx
    1968:	48 89 e5             	mov    %rsp,%rbp
    196b:	41 57                	push   %r15
    196d:	41 56                	push   %r14
    196f:	41 55                	push   %r13
    1971:	49 89 fd             	mov    %rdi,%r13
    1974:	48 81 c7 a0 00 00 00 	add    $0xa0,%rdi
    197b:	41 54                	push   %r12
    197d:	53                   	push   %rbx
    197e:	48 83 ec 08          	sub    $0x8,%rsp
    1982:	48 8b 47 98          	mov    -0x68(%rdi),%rax
    1986:	48 8d 48 01          	lea    0x1(%rax),%rcx
    198a:	48 2b 4f 90          	sub    -0x70(%rdi),%rcx
    198e:	48 c1 e9 0c          	shr    $0xc,%rcx
    1992:	44 0f b7 f1          	movzwl %cx,%r14d
    1996:	4c 89 f6             	mov    %r14,%rsi
    1999:	e8 00 00 00 00       	callq  199e <block_set_processor_masks+0x3e>
    199e:	49 8d 4d 48          	lea    0x48(%r13),%rcx
    19a2:	48 89 4d d0          	mov    %rcx,-0x30(%rbp)
    19a6:	49 39 c6             	cmp    %rax,%r14
    19a9:	0f 84 d5 00 00 00    	je     1a84 <block_set_processor_masks+0x124>
    19af:	49 0f ba 6d 48 00    	btsq   $0x0,0x48(%r13)
    19b5:	31 d2                	xor    %edx,%edx
    19b7:	49 8d 7d 58          	lea    0x58(%r13),%rdi
    19bb:	4c 89 f6             	mov    %r14,%rsi
    19be:	e8 00 00 00 00       	callq  19c3 <block_set_processor_masks+0x63>
    19c3:	49 39 c6             	cmp    %rax,%r14
    19c6:	0f 84 c3 00 00 00    	je     1a8f <block_set_processor_masks+0x12f>
    19cc:	49 0f ba 6d 40 00    	btsq   $0x0,0x40(%r13)
    19d2:	bb 01 00 00 00       	mov    $0x1,%ebx
    19d7:	eb 4f                	jmp    1a28 <block_set_processor_masks+0xc8>
    19d9:	48 0f ab 18          	bts    %rbx,(%rax)
    19dd:	31 d2                	xor    %edx,%edx
    19df:	4c 89 f6             	mov    %r14,%rsi
    19e2:	4c 89 e7             	mov    %r12,%rdi
    19e5:	e8 00 00 00 00       	callq  19ea <block_set_processor_masks+0x8a>
    19ea:	49 39 c6             	cmp    %rax,%r14
    19ed:	0f 84 84 00 00 00    	je     1a77 <block_set_processor_masks+0x117>
    19f3:	49 0f ab 5d 40       	bts    %rbx,0x40(%r13)
    19f8:	72 0b                	jb     1a05 <block_set_processor_masks+0xa5>
    19fa:	44 89 fe             	mov    %r15d,%esi
    19fd:	4c 89 ef             	mov    %r13,%rdi
    1a00:	e8 bb ee ff ff       	callq  8c0 <block_mark_memory_used>
    1a05:	31 d2                	xor    %edx,%edx
    1a07:	49 8d 7c 24 40       	lea    0x40(%r12),%rdi
    1a0c:	4c 89 f6             	mov    %r14,%rsi
    1a0f:	e8 00 00 00 00       	callq  1a14 <block_set_processor_masks+0xb4>
    1a14:	49 39 c6             	cmp    %rax,%r14
    1a17:	74 40                	je     1a59 <block_set_processor_masks+0xf9>
    1a19:	49 0f ab 5d 50       	bts    %rbx,0x50(%r13)
    1a1e:	48 83 c3 01          	add    $0x1,%rbx
    1a22:	48 83 fb 21          	cmp    $0x21,%rbx
    1a26:	74 40                	je     1a68 <block_set_processor_masks+0x108>
    1a28:	4d 8b a4 dd 40 01 00 	mov    0x140(%r13,%rbx,8),%r12
    1a2f:	00 
    1a30:	41 89 df             	mov    %ebx,%r15d
    1a33:	4d 85 e4             	test   %r12,%r12
    1a36:	74 e6                	je     1a1e <block_set_processor_masks+0xbe>
    1a38:	31 d2                	xor    %edx,%edx
    1a3a:	49 8d bc 24 00 01 00 	lea    0x100(%r12),%rdi
    1a41:	00 
    1a42:	4c 89 f6             	mov    %r14,%rsi
    1a45:	e8 00 00 00 00       	callq  1a4a <block_set_processor_masks+0xea>
    1a4a:	49 39 c6             	cmp    %rax,%r14
    1a4d:	48 8b 45 d0          	mov    -0x30(%rbp),%rax
    1a51:	75 86                	jne    19d9 <block_set_processor_masks+0x79>
    1a53:	48 0f b3 18          	btr    %rbx,(%rax)
    1a57:	eb 84                	jmp    19dd <block_set_processor_masks+0x7d>
    1a59:	49 0f b3 5d 50       	btr    %rbx,0x50(%r13)
    1a5e:	48 83 c3 01          	add    $0x1,%rbx
    1a62:	48 83 fb 21          	cmp    $0x21,%rbx
    1a66:	75 c0                	jne    1a28 <block_set_processor_masks+0xc8>
    1a68:	48 83 c4 08          	add    $0x8,%rsp
    1a6c:	5b                   	pop    %rbx
    1a6d:	41 5c                	pop    %r12
    1a6f:	41 5d                	pop    %r13
    1a71:	41 5e                	pop    %r14
    1a73:	41 5f                	pop    %r15
    1a75:	5d                   	pop    %rbp
    1a76:	c3                   	retq   
    1a77:	44 89 fe             	mov    %r15d,%esi
    1a7a:	4c 89 ef             	mov    %r13,%rdi
    1a7d:	e8 9e ee ff ff       	callq  920 <block_clear_resident_processor>
    1a82:	eb 81                	jmp    1a05 <block_set_processor_masks+0xa5>
    1a84:	49 0f ba 75 48 00    	btrq   $0x0,0x48(%r13)
    1a8a:	e9 26 ff ff ff       	jmpq   19b5 <block_set_processor_masks+0x55>
    1a8f:	49 8b 45 28          	mov    0x28(%r13),%rax
    1a93:	31 f6                	xor    %esi,%esi
    1a95:	4c 89 ef             	mov    %r13,%rdi
    1a98:	48 8b 00             	mov    (%rax),%rax
    1a9b:	48 8b 80 f0 02 00 00 	mov    0x2f0(%rax),%rax
    1aa2:	e8 79 ee ff ff       	callq  920 <block_clear_resident_processor>
    1aa7:	e9 26 ff ff ff       	jmpq   19d2 <block_set_processor_masks+0x72>
    1aac:	0f 1f 40 00          	nopl   0x0(%rax)

0000000000001ab0 <block_unmap_cpu>:
    1ab0:	e8 00 00 00 00       	callq  1ab5 <block_unmap_cpu+0x5>
    1ab5:	55                   	push   %rbp
    1ab6:	48 89 e5             	mov    %rsp,%rbp
    1ab9:	41 57                	push   %r15
    1abb:	41 56                	push   %r14
    1abd:	41 55                	push   %r13
    1abf:	41 54                	push   %r12
    1ac1:	53                   	push   %rbx
    1ac2:	48 83 ec 30          	sub    $0x30,%rsp
    1ac6:	48 8b 47 48          	mov    0x48(%rdi),%rax
    1aca:	48 89 55 c0          	mov    %rdx,-0x40(%rbp)
    1ace:	a8 01                	test   $0x1,%al
    1ad0:	0f 84 78 01 00 00    	je     1c4e <block_unmap_cpu+0x19e>
    1ad6:	48 8b 47 28          	mov    0x28(%rdi),%rax
    1ada:	89 f3                	mov    %esi,%ebx
    1adc:	49 89 fe             	mov    %rdi,%r14
    1adf:	66 89 75 d0          	mov    %si,-0x30(%rbp)
    1ae3:	c1 eb 10             	shr    $0x10,%ebx
    1ae6:	49 89 fc             	mov    %rdi,%r12
    1ae9:	41 89 f7             	mov    %esi,%r15d
    1aec:	48 89 45 b0          	mov    %rax,-0x50(%rbp)
    1af0:	41 89 dd             	mov    %ebx,%r13d
    1af3:	89 f0                	mov    %esi,%eax
    1af5:	49 81 c6 a0 00 00 00 	add    $0xa0,%r14
    1afc:	74 0e                	je     1b0c <block_unmap_cpu+0x5c>
    1afe:	0f b7 d6             	movzwl %si,%edx
    1b01:	4c 89 f7             	mov    %r14,%rdi
    1b04:	0f b7 f3             	movzwl %bx,%esi
    1b07:	e8 00 00 00 00       	callq  1b0c <block_unmap_cpu+0x5c>
    1b0c:	66 39 c3             	cmp    %ax,%bx
    1b0f:	0f 84 39 01 00 00    	je     1c4e <block_unmap_cpu+0x19e>
    1b15:	49 8d 7c 24 48       	lea    0x48(%r12),%rdi
    1b1a:	e8 31 e5 ff ff       	callq  50 <uvm_processor_mask_get_count>
    1b1f:	49 83 bc 24 28 01 00 	cmpq   $0x0,0x128(%r12)
    1b26:	00 00 
    1b28:	89 45 c8             	mov    %eax,-0x38(%rbp)
    1b2b:	0f 85 2c 01 00 00    	jne    1c5d <block_unmap_cpu+0x1ad>
    1b31:	89 de                	mov    %ebx,%esi
    1b33:	41 0f b7 ff          	movzwl %r15w,%edi
    1b37:	45 31 ff             	xor    %r15d,%r15d
    1b3a:	c1 e6 10             	shl    $0x10,%esi
    1b3d:	09 f7                	or     %esi,%edi
    1b3f:	48 8b 75 c0          	mov    -0x40(%rbp),%rsi
    1b43:	e8 48 e9 ff ff       	callq  490 <uvm_va_block_first_subregion_in_mask>
    1b48:	89 c1                	mov    %eax,%ecx
    1b4a:	c1 e9 10             	shr    $0x10,%ecx
    1b4d:	41 89 c9             	mov    %ecx,%r9d
    1b50:	49 8d 8c 24 e0 00 00 	lea    0xe0(%r12),%rcx
    1b57:	00 
    1b58:	48 89 4d a8          	mov    %rcx,-0x58(%rbp)
    1b5c:	66 39 c3             	cmp    %ax,%bx
    1b5f:	0f 84 e9 00 00 00    	je     1c4e <block_unmap_cpu+0x19e>
    1b65:	4c 89 65 d0          	mov    %r12,-0x30(%rbp)
    1b69:	89 c3                	mov    %eax,%ebx
    1b6b:	45 89 cc             	mov    %r9d,%r12d
    1b6e:	48 8b 45 d0          	mov    -0x30(%rbp),%rax
    1b72:	48 8b 40 48          	mov    0x48(%rax),%rax
    1b76:	83 e0 01             	and    $0x1,%eax
    1b79:	88 45 cf             	mov    %al,-0x31(%rbp)
    1b7c:	0f 84 8b 00 00 00    	je     1c0d <block_unmap_cpu+0x15d>
    1b82:	89 d8                	mov    %ebx,%eax
    1b84:	4d 85 f6             	test   %r14,%r14
    1b87:	74 0f                	je     1b98 <block_unmap_cpu+0xe8>
    1b89:	0f b7 d3             	movzwl %bx,%edx
    1b8c:	41 0f b7 f4          	movzwl %r12w,%esi
    1b90:	4c 89 f7             	mov    %r14,%rdi
    1b93:	e8 00 00 00 00       	callq  1b98 <block_unmap_cpu+0xe8>
    1b98:	66 44 39 e0          	cmp    %r12w,%ax
    1b9c:	74 6f                	je     1c0d <block_unmap_cpu+0x15d>
    1b9e:	45 0f b7 fc          	movzwl %r12w,%r15d
    1ba2:	0f b7 c3             	movzwl %bx,%eax
    1ba5:	0f b7 f3             	movzwl %bx,%esi
    1ba8:	b9 01 00 00 00       	mov    $0x1,%ecx
    1bad:	44 89 fa             	mov    %r15d,%edx
    1bb0:	48 c1 e6 0c          	shl    $0xc,%rsi
    1bb4:	29 c2                	sub    %eax,%edx
    1bb6:	48 8b 45 d0          	mov    -0x30(%rbp),%rax
    1bba:	41 c1 e7 10          	shl    $0x10,%r15d
    1bbe:	48 63 d2             	movslq %edx,%rdx
    1bc1:	48 03 70 30          	add    0x30(%rax),%rsi
    1bc5:	48 8b 45 b0          	mov    -0x50(%rbp),%rax
    1bc9:	48 c1 e2 0c          	shl    $0xc,%rdx
    1bcd:	48 8b 00             	mov    (%rax),%rax
    1bd0:	48 8d b8 90 01 00 00 	lea    0x190(%rax),%rdi
    1bd7:	48 89 45 b8          	mov    %rax,-0x48(%rbp)
    1bdb:	e8 00 00 00 00       	callq  1be0 <block_unmap_cpu+0x130>
    1be0:	44 0f b7 c3          	movzwl %bx,%r8d
    1be4:	4c 89 f7             	mov    %r14,%rdi
    1be7:	45 09 c7             	or     %r8d,%r15d
    1bea:	44 89 fe             	mov    %r15d,%esi
    1bed:	e8 9e e9 ff ff       	callq  590 <uvm_page_mask_region_clear>
    1bf2:	48 8b 7d a8          	mov    -0x58(%rbp),%rdi
    1bf6:	44 89 fe             	mov    %r15d,%esi
    1bf9:	e8 92 e9 ff ff       	callq  590 <uvm_page_mask_region_clear>
    1bfe:	83 7d c8 01          	cmpl   $0x1,-0x38(%rbp)
    1c02:	0f 84 9a 00 00 00    	je     1ca2 <block_unmap_cpu+0x1f2>
    1c08:	44 0f b6 7d cf       	movzbl -0x31(%rbp),%r15d
    1c0d:	48 8b 75 c0          	mov    -0x40(%rbp),%rsi
    1c11:	44 89 e2             	mov    %r12d,%edx
    1c14:	44 89 ef             	mov    %r13d,%edi
    1c17:	e8 b4 f3 ff ff       	callq  fd0 <uvm_va_block_next_subregion_in_mask.isra.0>
    1c1c:	89 c1                	mov    %eax,%ecx
    1c1e:	89 c3                	mov    %eax,%ebx
    1c20:	c1 e9 10             	shr    $0x10,%ecx
    1c23:	41 89 cc             	mov    %ecx,%r12d
    1c26:	66 41 39 c5          	cmp    %ax,%r13w
    1c2a:	0f 85 3e ff ff ff    	jne    1b6e <block_unmap_cpu+0xbe>
    1c30:	4c 8b 65 d0          	mov    -0x30(%rbp),%r12
    1c34:	45 84 ff             	test   %r15b,%r15b
    1c37:	74 15                	je     1c4e <block_unmap_cpu+0x19e>
    1c39:	be 00 02 00 00       	mov    $0x200,%esi
    1c3e:	4c 89 f7             	mov    %r14,%rdi
    1c41:	e8 00 00 00 00       	callq  1c46 <block_unmap_cpu+0x196>
    1c46:	48 3d 00 02 00 00    	cmp    $0x200,%rax
    1c4c:	74 6c                	je     1cba <block_unmap_cpu+0x20a>
    1c4e:	48 83 c4 30          	add    $0x30,%rsp
    1c52:	5b                   	pop    %rbx
    1c53:	41 5c                	pop    %r12
    1c55:	41 5d                	pop    %r13
    1c57:	41 5e                	pop    %r14
    1c59:	41 5f                	pop    %r15
    1c5b:	5d                   	pop    %rbp
    1c5c:	c3                   	retq   
    1c5d:	41 0f b7 84 24 34 01 	movzwl 0x134(%r12),%eax
    1c64:	00 00 
    1c66:	8d 50 01             	lea    0x1(%rax),%edx
    1c69:	66 39 da             	cmp    %bx,%dx
    1c6c:	0f 87 bf fe ff ff    	ja     1b31 <block_unmap_cpu+0x81>
    1c72:	66 3b 45 d0          	cmp    -0x30(%rbp),%ax
    1c76:	0f 82 b5 fe ff ff    	jb     1b31 <block_unmap_cpu+0x81>
    1c7c:	48 83 7d c0 00       	cmpq   $0x0,-0x40(%rbp)
    1c81:	74 0e                	je     1c91 <block_unmap_cpu+0x1e1>
    1c83:	48 8b 4d c0          	mov    -0x40(%rbp),%rcx
    1c87:	48 0f a3 01          	bt     %rax,(%rcx)
    1c8b:	0f 83 a0 fe ff ff    	jae    1b31 <block_unmap_cpu+0x81>
    1c91:	49 c7 84 24 28 01 00 	movq   $0x0,0x128(%r12)
    1c98:	00 00 00 00 00 
    1c9d:	e9 8f fe ff ff       	jmpq   1b31 <block_unmap_cpu+0x81>
    1ca2:	48 8b 45 d0          	mov    -0x30(%rbp),%rax
    1ca6:	44 89 fe             	mov    %r15d,%esi
    1ca9:	48 8d b8 88 02 00 00 	lea    0x288(%rax),%rdi
    1cb0:	e8 db e8 ff ff       	callq  590 <uvm_page_mask_region_clear>
    1cb5:	e9 4e ff ff ff       	jmpq   1c08 <block_unmap_cpu+0x158>
    1cba:	49 0f ba 74 24 48 00 	btrq   $0x0,0x48(%r12)
    1cc1:	48 83 c4 30          	add    $0x30,%rsp
    1cc5:	5b                   	pop    %rbx
    1cc6:	41 5c                	pop    %r12
    1cc8:	41 5d                	pop    %r13
    1cca:	41 5e                	pop    %r14
    1ccc:	41 5f                	pop    %r15
    1cce:	5d                   	pop    %rbp
    1ccf:	c3                   	retq   

0000000000001cd0 <block_populate_page_cpu>:
    1cd0:	e8 00 00 00 00       	callq  1cd5 <block_populate_page_cpu+0x5>
    1cd5:	55                   	push   %rbp
    1cd6:	48 89 e5             	mov    %rsp,%rbp
    1cd9:	41 57                	push   %r15
    1cdb:	41 56                	push   %r14
    1cdd:	41 55                	push   %r13
    1cdf:	44 0f b7 ee          	movzwl %si,%r13d
    1ce3:	41 54                	push   %r12
    1ce5:	4e 8d 24 ed 00 00 00 	lea    0x0(,%r13,8),%r12
    1cec:	00 
    1ced:	53                   	push   %rbx
    1cee:	48 89 fb             	mov    %rdi,%rbx
    1cf1:	48 83 ec 18          	sub    $0x18,%rsp
    1cf5:	48 8b 87 98 00 00 00 	mov    0x98(%rdi),%rax
    1cfc:	8b 35 00 00 00 00    	mov    0x0(%rip),%esi        # 1d02 <block_populate_page_cpu+0x32>
    1d02:	4a 8b 0c e8          	mov    (%rax,%r13,8),%rcx
    1d06:	31 c0                	xor    %eax,%eax
    1d08:	85 f6                	test   %esi,%esi
    1d0a:	0f 84 fb 00 00 00    	je     1e0b <block_populate_page_cpu+0x13b>
    1d10:	48 85 c9             	test   %rcx,%rcx
    1d13:	74 0f                	je     1d24 <block_populate_page_cpu+0x54>
    1d15:	48 83 c4 18          	add    $0x18,%rsp
    1d19:	5b                   	pop    %rbx
    1d1a:	41 5c                	pop    %r12
    1d1c:	41 5d                	pop    %r13
    1d1e:	41 5e                	pop    %r14
    1d20:	41 5f                	pop    %r15
    1d22:	5d                   	pop    %rbp
    1d23:	c3                   	retq   
    1d24:	48 81 ff c0 fc ff ff 	cmp    $0xfffffffffffffcc0,%rdi
    1d2b:	74 0d                	je     1d3a <block_populate_page_cpu+0x6a>
    1d2d:	80 bf 49 03 00 00 00 	cmpb   $0x0,0x349(%rdi)
    1d34:	0f 85 a8 01 00 00    	jne    1ee2 <block_populate_page_cpu+0x212>
    1d3a:	84 d2                	test   %dl,%dl
    1d3c:	0f 85 e1 00 00 00    	jne    1e23 <block_populate_page_cpu+0x153>
    1d42:	31 f6                	xor    %esi,%esi
    1d44:	bf c2 0c 11 00       	mov    $0x110cc2,%edi
    1d49:	e8 00 00 00 00       	callq  1d4e <block_populate_page_cpu+0x7e>
    1d4e:	49 89 c6             	mov    %rax,%r14
    1d51:	48 85 c0             	test   %rax,%rax
    1d54:	0f 84 88 01 00 00    	je     1ee2 <block_populate_page_cpu+0x212>
    1d5a:	4c 89 e8             	mov    %r13,%rax
    1d5d:	45 31 ff             	xor    %r15d,%r15d
    1d60:	48 c1 e0 0c          	shl    $0xc,%rax
    1d64:	48 89 45 c0          	mov    %rax,-0x40(%rbp)
    1d68:	4e 8b 84 fb 48 01 00 	mov    0x148(%rbx,%r15,8),%r8
    1d6f:	00 
    1d70:	4d 85 c0             	test   %r8,%r8
    1d73:	74 6c                	je     1de1 <block_populate_page_cpu+0x111>
    1d75:	48 8b 43 28          	mov    0x28(%rbx),%rax
    1d79:	44 89 fa             	mov    %r15d,%edx
    1d7c:	4c 89 f6             	mov    %r14,%rsi
    1d7f:	4c 89 45 c8          	mov    %r8,-0x38(%rbp)
    1d83:	49 8b 88 88 00 00 00 	mov    0x88(%r8),%rcx
    1d8a:	48 8b 00             	mov    (%rax),%rax
    1d8d:	4c 01 e1             	add    %r12,%rcx
    1d90:	48 8b 7c d0 08       	mov    0x8(%rax,%rdx,8),%rdi
    1d95:	ba 00 10 00 00       	mov    $0x1000,%edx
    1d9a:	48 89 7d d0          	mov    %rdi,-0x30(%rbp)
    1d9e:	e8 00 00 00 00       	callq  1da3 <block_populate_page_cpu+0xd3>
    1da3:	85 c0                	test   %eax,%eax
    1da5:	0f 85 a8 00 00 00    	jne    1e53 <block_populate_page_cpu+0x183>
    1dab:	4c 8b 45 c8          	mov    -0x38(%rbp),%r8
    1daf:	48 8b 7d d0          	mov    -0x30(%rbp),%rdi
    1db3:	45 31 c9             	xor    %r9d,%r9d
    1db6:	b9 00 10 00 00       	mov    $0x1000,%ecx
    1dbb:	48 8b 55 c0          	mov    -0x40(%rbp),%rdx
    1dbf:	48 03 53 30          	add    0x30(%rbx),%rdx
    1dc3:	49 8b 80 88 00 00 00 	mov    0x88(%r8),%rax
    1dca:	48 81 c7 f0 09 00 00 	add    $0x9f0,%rdi
    1dd1:	49 89 d8             	mov    %rbx,%r8
    1dd4:	4a 8b 34 20          	mov    (%rax,%r12,1),%rsi
    1dd8:	e8 00 00 00 00       	callq  1ddd <block_populate_page_cpu+0x10d>
    1ddd:	85 c0                	test   %eax,%eax
    1ddf:	75 72                	jne    1e53 <block_populate_page_cpu+0x183>
    1de1:	49 83 c7 01          	add    $0x1,%r15
    1de5:	49 83 ff 20          	cmp    $0x20,%r15
    1de9:	0f 85 79 ff ff ff    	jne    1d68 <block_populate_page_cpu+0x98>
    1def:	48 8b 83 98 00 00 00 	mov    0x98(%rbx),%rax
    1df6:	4e 89 34 e8          	mov    %r14,(%rax,%r13,8)
    1dfa:	48 83 c4 18          	add    $0x18,%rsp
    1dfe:	31 c0                	xor    %eax,%eax
    1e00:	5b                   	pop    %rbx
    1e01:	41 5c                	pop    %r12
    1e03:	41 5d                	pop    %r13
    1e05:	41 5e                	pop    %r14
    1e07:	41 5f                	pop    %r15
    1e09:	5d                   	pop    %rbp
    1e0a:	c3                   	retq   
    1e0b:	48 85 c9             	test   %rcx,%rcx
    1e0e:	0f 84 26 ff ff ff    	je     1d3a <block_populate_page_cpu+0x6a>
    1e14:	48 83 c4 18          	add    $0x18,%rsp
    1e18:	5b                   	pop    %rbx
    1e19:	41 5c                	pop    %r12
    1e1b:	41 5d                	pop    %r13
    1e1d:	41 5e                	pop    %r14
    1e1f:	41 5f                	pop    %r15
    1e21:	5d                   	pop    %rbp
    1e22:	c3                   	retq   
    1e23:	31 f6                	xor    %esi,%esi
    1e25:	bf c2 0d 11 00       	mov    $0x110dc2,%edi
    1e2a:	e8 00 00 00 00       	callq  1e2f <block_populate_page_cpu+0x15f>
    1e2f:	49 89 c6             	mov    %rax,%r14
    1e32:	48 85 c0             	test   %rax,%rax
    1e35:	0f 84 a7 00 00 00    	je     1ee2 <block_populate_page_cpu+0x212>
    1e3b:	49 8b 56 08          	mov    0x8(%r14),%rdx
    1e3f:	48 8d 42 ff          	lea    -0x1(%rdx),%rax
    1e43:	83 e2 01             	and    $0x1,%edx
    1e46:	49 0f 44 c6          	cmove  %r14,%rax
    1e4a:	f0 80 08 08          	lock orb $0x8,(%rax)
    1e4e:	e9 07 ff ff ff       	jmpq   1d5a <block_populate_page_cpu+0x8a>
    1e53:	45 31 ed             	xor    %r13d,%r13d
    1e56:	4e 8b bc eb 48 01 00 	mov    0x148(%rbx,%r13,8),%r15
    1e5d:	00 
    1e5e:	44 89 ea             	mov    %r13d,%edx
    1e61:	4d 85 ff             	test   %r15,%r15
    1e64:	74 5d                	je     1ec3 <block_populate_page_cpu+0x1f3>
    1e66:	49 8b 8f 88 00 00 00 	mov    0x88(%r15),%rcx
    1e6d:	4a 8b 34 21          	mov    (%rcx,%r12,1),%rsi
    1e71:	48 85 f6             	test   %rsi,%rsi
    1e74:	74 4d                	je     1ec3 <block_populate_page_cpu+0x1f3>
    1e76:	48 8b 4b 28          	mov    0x28(%rbx),%rcx
    1e7a:	89 45 c8             	mov    %eax,-0x38(%rbp)
    1e7d:	48 8b 09             	mov    (%rcx),%rcx
    1e80:	4c 8b 44 d1 08       	mov    0x8(%rcx,%rdx,8),%r8
    1e85:	49 8d b8 f0 09 00 00 	lea    0x9f0(%r8),%rdi
    1e8c:	4c 89 45 d0          	mov    %r8,-0x30(%rbp)
    1e90:	e8 00 00 00 00       	callq  1e95 <block_populate_page_cpu+0x1c5>
    1e95:	49 8b 97 88 00 00 00 	mov    0x88(%r15),%rdx
    1e9c:	4c 8b 45 d0          	mov    -0x30(%rbp),%r8
    1ea0:	4a 8b 34 22          	mov    (%rdx,%r12,1),%rsi
    1ea4:	4c 89 c7             	mov    %r8,%rdi
    1ea7:	ba 00 10 00 00       	mov    $0x1000,%edx
    1eac:	e8 00 00 00 00       	callq  1eb1 <block_populate_page_cpu+0x1e1>
    1eb1:	49 8b 97 88 00 00 00 	mov    0x88(%r15),%rdx
    1eb8:	8b 45 c8             	mov    -0x38(%rbp),%eax
    1ebb:	4a c7 04 22 00 00 00 	movq   $0x0,(%rdx,%r12,1)
    1ec2:	00 
    1ec3:	49 83 c5 01          	add    $0x1,%r13
    1ec7:	49 83 fd 20          	cmp    $0x20,%r13
    1ecb:	75 89                	jne    1e56 <block_populate_page_cpu+0x186>
    1ecd:	31 f6                	xor    %esi,%esi
    1ecf:	4c 89 f7             	mov    %r14,%rdi
    1ed2:	89 45 d0             	mov    %eax,-0x30(%rbp)
    1ed5:	e8 00 00 00 00       	callq  1eda <block_populate_page_cpu+0x20a>
    1eda:	8b 45 d0             	mov    -0x30(%rbp),%eax
    1edd:	e9 33 fe ff ff       	jmpq   1d15 <block_populate_page_cpu+0x45>
    1ee2:	48 83 c4 18          	add    $0x18,%rsp
    1ee6:	b8 51 00 00 00       	mov    $0x51,%eax
    1eeb:	5b                   	pop    %rbx
    1eec:	41 5c                	pop    %r12
    1eee:	41 5d                	pop    %r13
    1ef0:	41 5e                	pop    %r14
    1ef2:	41 5f                	pop    %r15
    1ef4:	5d                   	pop    %rbp
    1ef5:	c3                   	retq   
    1ef6:	66 2e 0f 1f 84 00 00 	nopw   %cs:0x0(%rax,%rax,1)
    1efd:	00 00 00 

0000000000001f00 <uvm_page_mask_init_from_region>:
    1f00:	e8 00 00 00 00       	callq  1f05 <uvm_page_mask_init_from_region+0x5>
    1f05:	55                   	push   %rbp
    1f06:	31 c0                	xor    %eax,%eax
    1f08:	48 89 e5             	mov    %rsp,%rbp
    1f0b:	41 55                	push   %r13
    1f0d:	49 89 d5             	mov    %rdx,%r13
    1f10:	41 54                	push   %r12
    1f12:	49 89 fc             	mov    %rdi,%r12
    1f15:	48 83 c7 08          	add    $0x8,%rdi
    1f19:	48 c7 47 f8 00 00 00 	movq   $0x0,-0x8(%rdi)
    1f20:	00 
    1f21:	4c 89 e1             	mov    %r12,%rcx
    1f24:	48 c7 47 30 00 00 00 	movq   $0x0,0x30(%rdi)
    1f2b:	00 
    1f2c:	48 83 e7 f8          	and    $0xfffffffffffffff8,%rdi
    1f30:	48 29 f9             	sub    %rdi,%rcx
    1f33:	83 c1 40             	add    $0x40,%ecx
    1f36:	c1 e9 03             	shr    $0x3,%ecx
    1f39:	f3 48 ab             	rep stos %rax,%es:(%rdi)
    1f3c:	4c 89 e7             	mov    %r12,%rdi
    1f3f:	e8 bc e5 ff ff       	callq  500 <uvm_page_mask_region_fill>
    1f44:	b8 01 00 00 00       	mov    $0x1,%eax
    1f49:	4d 85 ed             	test   %r13,%r13
    1f4c:	74 18                	je     1f66 <uvm_page_mask_init_from_region+0x66>
    1f4e:	b9 00 02 00 00       	mov    $0x200,%ecx
    1f53:	4c 89 ea             	mov    %r13,%rdx
    1f56:	4c 89 e6             	mov    %r12,%rsi
    1f59:	4c 89 e7             	mov    %r12,%rdi
    1f5c:	e8 00 00 00 00       	callq  1f61 <uvm_page_mask_init_from_region+0x61>
    1f61:	85 c0                	test   %eax,%eax
    1f63:	0f 95 c0             	setne  %al
    1f66:	41 5c                	pop    %r12
    1f68:	41 5d                	pop    %r13
    1f6a:	5d                   	pop    %rbp
    1f6b:	c3                   	retq   
    1f6c:	0f 1f 40 00          	nopl   0x0(%rax)

0000000000001f70 <uvm_page_mask_init_from_big_ptes>:
    1f70:	e8 00 00 00 00       	callq  1f75 <uvm_page_mask_init_from_big_ptes+0x5>
    1f75:	55                   	push   %rbp
    1f76:	48 89 e5             	mov    %rsp,%rbp
    1f79:	41 57                	push   %r15
    1f7b:	41 56                	push   %r14
    1f7d:	41 55                	push   %r13
    1f7f:	49 89 fd             	mov    %rdi,%r13
    1f82:	41 54                	push   %r12
    1f84:	49 89 cc             	mov    %rcx,%r12
    1f87:	53                   	push   %rbx
    1f88:	48 89 d3             	mov    %rdx,%rbx
    1f8b:	48 83 ec 08          	sub    $0x8,%rsp
    1f8f:	48 8b 06             	mov    (%rsi),%rax
    1f92:	80 b8 28 5e 00 00 00 	cmpb   $0x0,0x5e28(%rax)
    1f99:	0f 85 bb 00 00 00    	jne    205a <uvm_page_mask_init_from_big_ptes+0xea>
    1f9f:	e8 bc f7 ff ff       	callq  1760 <uvm_va_block_gpu_big_page_size.part.0>
    1fa4:	41 89 c7             	mov    %eax,%r15d
    1fa7:	48 8d 7b 08          	lea    0x8(%rbx),%rdi
    1fab:	48 89 d9             	mov    %rbx,%rcx
    1fae:	31 c0                	xor    %eax,%eax
    1fb0:	48 c7 03 00 00 00 00 	movq   $0x0,(%rbx)
    1fb7:	48 83 e7 f8          	and    $0xfffffffffffffff8,%rdi
    1fbb:	48 c7 43 38 00 00 00 	movq   $0x0,0x38(%rbx)
    1fc2:	00 
    1fc3:	be 20 00 00 00       	mov    $0x20,%esi
    1fc8:	48 29 f9             	sub    %rdi,%rcx
    1fcb:	83 c1 40             	add    $0x40,%ecx
    1fce:	c1 e9 03             	shr    $0x3,%ecx
    1fd1:	f3 48 ab             	rep stos %rax,%es:(%rdi)
    1fd4:	4c 89 e7             	mov    %r12,%rdi
    1fd7:	e8 00 00 00 00       	callq  1fdc <uvm_page_mask_init_from_big_ptes+0x6c>
    1fdc:	49 89 c6             	mov    %rax,%r14
    1fdf:	4c 89 f8             	mov    %r15,%rax
    1fe2:	48 f7 d8             	neg    %rax
    1fe5:	48 89 45 d0          	mov    %rax,-0x30(%rbp)
    1fe9:	49 83 fe 1f          	cmp    $0x1f,%r14
    1fed:	77 5c                	ja     204b <uvm_page_mask_init_from_big_ptes+0xdb>
    1fef:	4c 89 f7             	mov    %r14,%rdi
    1ff2:	49 8b 4d 30          	mov    0x30(%r13),%rcx
    1ff6:	49 0f af ff          	imul   %r15,%rdi
    1ffa:	4a 8d 74 39 ff       	lea    -0x1(%rcx,%r15,1),%rsi
    1fff:	48 23 75 d0          	and    -0x30(%rbp),%rsi
    2003:	48 01 f7             	add    %rsi,%rdi
    2006:	48 89 fa             	mov    %rdi,%rdx
    2009:	48 29 ca             	sub    %rcx,%rdx
    200c:	48 f7 d1             	not    %rcx
    200f:	4a 8d 34 39          	lea    (%rcx,%r15,1),%rsi
    2013:	48 c1 ea 0c          	shr    $0xc,%rdx
    2017:	48 01 fe             	add    %rdi,%rsi
    201a:	0f b7 d2             	movzwl %dx,%edx
    201d:	48 89 df             	mov    %rbx,%rdi
    2020:	48 c1 ee 0c          	shr    $0xc,%rsi
    2024:	83 c6 01             	add    $0x1,%esi
    2027:	c1 e6 10             	shl    $0x10,%esi
    202a:	09 d6                	or     %edx,%esi
    202c:	e8 cf e4 ff ff       	callq  500 <uvm_page_mask_region_fill>
    2031:	49 8d 56 01          	lea    0x1(%r14),%rdx
    2035:	be 20 00 00 00       	mov    $0x20,%esi
    203a:	4c 89 e7             	mov    %r12,%rdi
    203d:	e8 00 00 00 00       	callq  2042 <uvm_page_mask_init_from_big_ptes+0xd2>
    2042:	49 89 c6             	mov    %rax,%r14
    2045:	48 83 f8 1f          	cmp    $0x1f,%rax
    2049:	76 a4                	jbe    1fef <uvm_page_mask_init_from_big_ptes+0x7f>
    204b:	48 83 c4 08          	add    $0x8,%rsp
    204f:	5b                   	pop    %rbx
    2050:	41 5c                	pop    %r12
    2052:	41 5d                	pop    %r13
    2054:	41 5e                	pop    %r14
    2056:	41 5f                	pop    %r15
    2058:	5d                   	pop    %rbp
    2059:	c3                   	retq   
    205a:	44 8b 7e 30          	mov    0x30(%rsi),%r15d
    205e:	e9 44 ff ff ff       	jmpq   1fa7 <uvm_page_mask_init_from_big_ptes+0x37>
    2063:	66 66 2e 0f 1f 84 00 	data16 nopw %cs:0x0(%rax,%rax,1)
    206a:	00 00 00 00 
    206e:	66 90                	xchg   %ax,%ax

0000000000002070 <block_kill.part.0>:
    2070:	e8 00 00 00 00       	callq  2075 <block_kill.part.0+0x5>
    2075:	55                   	push   %rbp
    2076:	48 89 e5             	mov    %rsp,%rbp
    2079:	41 54                	push   %r12
    207b:	4c 8d a7 c8 02 00 00 	lea    0x2c8(%rdi),%r12
    2082:	53                   	push   %rbx
    2083:	48 89 fb             	mov    %rdi,%rbx
    2086:	4c 89 e7             	mov    %r12,%rdi
    2089:	e8 00 00 00 00       	callq  208e <block_kill.part.0+0x1e>
    208e:	4c 89 e7             	mov    %r12,%rdi
    2091:	e8 00 00 00 00       	callq  2096 <block_kill.part.0+0x26>
    2096:	48 8b 83 98 00 00 00 	mov    0x98(%rbx),%rax
    209d:	48 85 c0             	test   %rax,%rax
    20a0:	0f 84 af 00 00 00    	je     2155 <block_kill.part.0+0xe5>
    20a6:	48 8b 4b 38          	mov    0x38(%rbx),%rcx
    20aa:	48 8d 51 01          	lea    0x1(%rcx),%rdx
    20ae:	48 2b 53 30          	sub    0x30(%rbx),%rdx
    20b2:	f7 c2 00 f0 ff 0f    	test   $0xffff000,%edx
    20b8:	74 58                	je     2112 <block_kill.part.0+0xa2>
    20ba:	45 31 e4             	xor    %r12d,%r12d
    20bd:	eb 07                	jmp    20c6 <block_kill.part.0+0x56>
    20bf:	48 8b 83 98 00 00 00 	mov    0x98(%rbx),%rax
    20c6:	41 0f b7 d4          	movzwl %r12w,%edx
    20ca:	48 8b 04 d0          	mov    (%rax,%rdx,8),%rax
    20ce:	48 85 c0             	test   %rax,%rax
    20d1:	74 29                	je     20fc <block_kill.part.0+0x8c>
    20d3:	48 8b 48 08          	mov    0x8(%rax),%rcx
    20d7:	48 8d 71 ff          	lea    -0x1(%rcx),%rsi
    20db:	83 e1 01             	and    $0x1,%ecx
    20de:	48 0f 45 c6          	cmovne %rsi,%rax
    20e2:	f0 80 08 08          	lock orb $0x8,(%rax)
    20e6:	48 8b 83 98 00 00 00 	mov    0x98(%rbx),%rax
    20ed:	31 f6                	xor    %esi,%esi
    20ef:	48 8b 3c d0          	mov    (%rax,%rdx,8),%rdi
    20f3:	e8 00 00 00 00       	callq  20f8 <block_kill.part.0+0x88>
    20f8:	48 8b 4b 38          	mov    0x38(%rbx),%rcx
    20fc:	48 8d 41 01          	lea    0x1(%rcx),%rax
    2100:	48 2b 43 30          	sub    0x30(%rbx),%rax
    2104:	41 83 c4 01          	add    $0x1,%r12d
    2108:	48 c1 e8 0c          	shr    $0xc,%rax
    210c:	66 41 39 c4          	cmp    %ax,%r12w
    2110:	75 ad                	jne    20bf <block_kill.part.0+0x4f>
    2112:	48 8d 7b 60          	lea    0x60(%rbx),%rdi
    2116:	89 d8                	mov    %ebx,%eax
    2118:	48 c7 43 58 00 00 00 	movq   $0x0,0x58(%rbx)
    211f:	00 
    2120:	31 f6                	xor    %esi,%esi
    2122:	48 c7 83 90 00 00 00 	movq   $0x0,0x90(%rbx)
    2129:	00 00 00 00 
    212d:	48 83 e7 f8          	and    $0xfffffffffffffff8,%rdi
    2131:	29 f8                	sub    %edi,%eax
    2133:	8d 88 98 00 00 00    	lea    0x98(%rax),%ecx
    2139:	31 c0                	xor    %eax,%eax
    213b:	c1 e9 03             	shr    $0x3,%ecx
    213e:	f3 48 ab             	rep stos %rax,%es:(%rdi)
    2141:	48 89 df             	mov    %rbx,%rdi
    2144:	e8 d7 e7 ff ff       	callq  920 <block_clear_resident_processor>
    2149:	48 8b bb 98 00 00 00 	mov    0x98(%rbx),%rdi
    2150:	e8 00 00 00 00       	callq  2155 <block_kill.part.0+0xe5>
    2155:	48 8b 83 40 01 00 00 	mov    0x140(%rbx),%rax
    215c:	48 85 c0             	test   %rax,%rax
    215f:	74 11                	je     2172 <block_kill.part.0+0x102>
    2161:	48 8b 53 38          	mov    0x38(%rbx),%rdx
    2165:	48 2b 53 30          	sub    0x30(%rbx),%rdx
    2169:	48 81 fa ff ff 1f 00 	cmp    $0x1fffff,%rdx
    2170:	74 0d                	je     217f <block_kill.part.0+0x10f>
    2172:	48 c7 43 28 00 00 00 	movq   $0x0,0x28(%rbx)
    2179:	00 
    217a:	5b                   	pop    %rbx
    217b:	41 5c                	pop    %r12
    217d:	5d                   	pop    %rbp
    217e:	c3                   	retq   
    217f:	ba 00 02 00 00       	mov    $0x200,%edx
    2184:	be ff ff ff ff       	mov    $0xffffffff,%esi
    2189:	48 0f bd f2          	bsr    %rdx,%rsi
    218d:	48 8b 50 08          	mov    0x8(%rax),%rdx
    2191:	48 8d 4a ff          	lea    -0x1(%rdx),%rcx
    2195:	83 e2 01             	and    $0x1,%edx
    2198:	48 0f 45 c1          	cmovne %rcx,%rax
    219c:	f0 80 08 08          	lock orb $0x8,(%rax)
    21a0:	48 8b bb 40 01 00 00 	mov    0x140(%rbx),%rdi
    21a7:	e8 00 00 00 00       	callq  21ac <block_kill.part.0+0x13c>
    21ac:	48 8d 7b 60          	lea    0x60(%rbx),%rdi
    21b0:	89 d8                	mov    %ebx,%eax
    21b2:	31 f6                	xor    %esi,%esi
    21b4:	48 83 e7 f8          	and    $0xfffffffffffffff8,%rdi
    21b8:	48 c7 43 58 00 00 00 	movq   $0x0,0x58(%rbx)
    21bf:	00 
    21c0:	48 c7 83 90 00 00 00 	movq   $0x0,0x90(%rbx)
    21c7:	00 00 00 00 
    21cb:	29 f8                	sub    %edi,%eax
    21cd:	8d 88 98 00 00 00    	lea    0x98(%rax),%ecx
    21d3:	31 c0                	xor    %eax,%eax
    21d5:	c1 e9 03             	shr    $0x3,%ecx
    21d8:	f3 48 ab             	rep stos %rax,%es:(%rdi)
    21db:	48 89 df             	mov    %rbx,%rdi
    21de:	e8 3d e7 ff ff       	callq  920 <block_clear_resident_processor>
    21e3:	48 c7 43 28 00 00 00 	movq   $0x0,0x28(%rbx)
    21ea:	00 
    21eb:	5b                   	pop    %rbx
    21ec:	41 5c                	pop    %r12
    21ee:	5d                   	pop    %rbp
    21ef:	c3                   	retq   

00000000000021f0 <range_num_big_pages>:
    21f0:	e8 00 00 00 00       	callq  21f5 <range_num_big_pages+0x5>
    21f5:	89 d2                	mov    %edx,%edx
    21f7:	55                   	push   %rbp
    21f8:	48 83 c6 01          	add    $0x1,%rsi
    21fc:	48 89 d0             	mov    %rdx,%rax
    21ff:	48 8d 4c 3a ff       	lea    -0x1(%rdx,%rdi,1),%rcx
    2204:	48 f7 d8             	neg    %rax
    2207:	48 21 c1             	and    %rax,%rcx
    220a:	48 21 c6             	and    %rax,%rsi
    220d:	48 89 e5             	mov    %rsp,%rbp
    2210:	31 c0                	xor    %eax,%eax
    2212:	48 39 f1             	cmp    %rsi,%rcx
    2215:	73 1d                	jae    2234 <range_num_big_pages+0x44>
    2217:	48 29 fe             	sub    %rdi,%rsi
    221a:	48 29 f9             	sub    %rdi,%rcx
    221d:	48 c1 ee 0c          	shr    $0xc,%rsi
    2221:	48 c1 e9 0c          	shr    $0xc,%rcx
    2225:	0f b7 f6             	movzwl %si,%esi
    2228:	0f b7 c9             	movzwl %cx,%ecx
    222b:	29 ce                	sub    %ecx,%esi
    222d:	48 63 c6             	movslq %esi,%rax
    2230:	48 c1 e0 0c          	shl    $0xc,%rax
    2234:	b9 ff ff ff ff       	mov    $0xffffffff,%ecx
    2239:	5d                   	pop    %rbp
    223a:	48 0f bd ca          	bsr    %rdx,%rcx
    223e:	48 d3 e8             	shr    %cl,%rax
    2241:	c3                   	retq   
    2242:	66 66 2e 0f 1f 84 00 	data16 nopw %cs:0x0(%rax,%rax,1)
    2249:	00 00 00 00 
    224d:	0f 1f 00             	nopl   (%rax)

0000000000002250 <block_gpu_pte_clear_big>:
    2250:	e8 00 00 00 00       	callq  2255 <block_gpu_pte_clear_big+0x5>
    2255:	55                   	push   %rbp
    2256:	48 89 e5             	mov    %rsp,%rbp
    2259:	41 57                	push   %r15
    225b:	41 56                	push   %r14
    225d:	41 55                	push   %r13
    225f:	41 54                	push   %r12
    2261:	49 89 d4             	mov    %rdx,%r12
    2264:	53                   	push   %rbx
    2265:	4c 89 cb             	mov    %r9,%rbx
    2268:	48 83 ec 38          	sub    $0x38,%rsp
    226c:	48 8b 57 28          	mov    0x28(%rdi),%rdx
    2270:	48 89 3c 24          	mov    %rdi,(%rsp)
    2274:	48 89 4c 24 10       	mov    %rcx,0x10(%rsp)
    2279:	48 8b 12             	mov    (%rdx),%rdx
    227c:	4c 89 44 24 08       	mov    %r8,0x8(%rsp)
    2281:	65 48 8b 04 25 28 00 	mov    %gs:0x28,%rax
    2288:	00 00 
    228a:	48 89 44 24 30       	mov    %rax,0x30(%rsp)
    228f:	31 c0                	xor    %eax,%eax
    2291:	8b 46 10             	mov    0x10(%rsi),%eax
    2294:	83 e8 01             	sub    $0x1,%eax
    2297:	4c 8b b4 c2 40 0b 00 	mov    0xb40(%rdx,%rax,8),%r14
    229e:	00 
    229f:	4c 8b bc c7 48 01 00 	mov    0x148(%rdi,%rax,8),%r15
    22a6:	00 
    22a7:	41 8b 7e 64          	mov    0x64(%r14),%edi
    22ab:	49 8b 46 58          	mov    0x58(%r14),%rax
    22af:	89 7c 24 18          	mov    %edi,0x18(%rsp)
    22b3:	4c 8b 68 30          	mov    0x30(%rax),%r13
    22b7:	48 8b 40 60          	mov    0x60(%rax),%rax
    22bb:	e8 00 00 00 00       	callq  22c0 <block_gpu_pte_clear_big+0x70>
    22c0:	89 c7                	mov    %eax,%edi
    22c2:	e8 00 00 00 00       	callq  22c7 <block_gpu_pte_clear_big+0x77>
    22c7:	89 44 24 1c          	mov    %eax,0x1c(%rsp)
    22cb:	4d 85 e4             	test   %r12,%r12
    22ce:	0f 84 e4 00 00 00    	je     23b8 <block_gpu_pte_clear_big+0x168>
    22d4:	49 8b 04 24          	mov    (%r12),%rax
    22d8:	4c 8d 64 24 28       	lea    0x28(%rsp),%r12
    22dd:	48 89 44 24 28       	mov    %rax,0x28(%rsp)
    22e2:	be 20 00 00 00       	mov    $0x20,%esi
    22e7:	4c 89 e7             	mov    %r12,%rdi
    22ea:	49 81 c7 c0 00 00 00 	add    $0xc0,%r15
    22f1:	e8 00 00 00 00       	callq  22f6 <block_gpu_pte_clear_big+0xa6>
    22f6:	49 89 c5             	mov    %rax,%r13
    22f9:	49 8d 46 28          	lea    0x28(%r14),%rax
    22fd:	44 8b 74 24 18       	mov    0x18(%rsp),%r14d
    2302:	48 89 44 24 20       	mov    %rax,0x20(%rsp)
    2307:	49 83 fd 1f          	cmp    $0x1f,%r13
    230b:	0f 87 88 00 00 00    	ja     2399 <block_gpu_pte_clear_big+0x149>
    2311:	4c 89 e0             	mov    %r12,%rax
    2314:	4d 89 ec             	mov    %r13,%r12
    2317:	49 89 c5             	mov    %rax,%r13
    231a:	48 8b 7c 24 20       	mov    0x20(%rsp),%rdi
    231f:	4c 89 fe             	mov    %r15,%rsi
    2322:	4c 89 e2             	mov    %r12,%rdx
    2325:	e8 d6 dc ff ff       	callq  0 <uvm_page_table_range_entry_address>
    232a:	44 8b 44 24 1c       	mov    0x1c(%rsp),%r8d
    232f:	48 8b 4c 24 10       	mov    0x10(%rsp),%rcx
    2334:	41 b9 01 00 00 00    	mov    $0x1,%r9d
    233a:	48 8b 7c 24 08       	mov    0x8(%rsp),%rdi
    233f:	48 89 c6             	mov    %rax,%rsi
    2342:	e8 00 00 00 00       	callq  2347 <block_gpu_pte_clear_big+0xf7>
    2347:	48 85 db             	test   %rbx,%rbx
    234a:	74 32                	je     237e <block_gpu_pte_clear_big+0x12e>
    234c:	48 8b 04 24          	mov    (%rsp),%rax
    2350:	8b 4c 24 18          	mov    0x18(%rsp),%ecx
    2354:	45 31 c0             	xor    %r8d,%r8d
    2357:	4c 89 f2             	mov    %r14,%rdx
    235a:	48 89 df             	mov    %rbx,%rdi
    235d:	48 8b 40 30          	mov    0x30(%rax),%rax
    2361:	4a 8d 74 30 ff       	lea    -0x1(%rax,%r14,1),%rsi
    2366:	4c 89 f0             	mov    %r14,%rax
    2369:	48 f7 d8             	neg    %rax
    236c:	48 21 c6             	and    %rax,%rsi
    236f:	4c 89 f0             	mov    %r14,%rax
    2372:	49 0f af c4          	imul   %r12,%rax
    2376:	48 01 c6             	add    %rax,%rsi
    2379:	e8 00 00 00 00       	callq  237e <block_gpu_pte_clear_big+0x12e>
    237e:	49 8d 54 24 01       	lea    0x1(%r12),%rdx
    2383:	be 20 00 00 00       	mov    $0x20,%esi
    2388:	4c 89 ef             	mov    %r13,%rdi
    238b:	e8 00 00 00 00       	callq  2390 <block_gpu_pte_clear_big+0x140>
    2390:	49 89 c4             	mov    %rax,%r12
    2393:	48 83 f8 1f          	cmp    $0x1f,%rax
    2397:	76 81                	jbe    231a <block_gpu_pte_clear_big+0xca>
    2399:	48 8b 44 24 30       	mov    0x30(%rsp),%rax
    239e:	65 48 33 04 25 28 00 	xor    %gs:0x28,%rax
    23a5:	00 00 
    23a7:	75 3b                	jne    23e4 <block_gpu_pte_clear_big+0x194>
    23a9:	48 83 c4 38          	add    $0x38,%rsp
    23ad:	5b                   	pop    %rbx
    23ae:	41 5c                	pop    %r12
    23b0:	41 5d                	pop    %r13
    23b2:	41 5e                	pop    %r14
    23b4:	41 5f                	pop    %r15
    23b6:	5d                   	pop    %rbp
    23b7:	c3                   	retq   
    23b8:	48 8b 04 24          	mov    (%rsp),%rax
    23bc:	8b 54 24 18          	mov    0x18(%rsp),%edx
    23c0:	48 8b 70 38          	mov    0x38(%rax),%rsi
    23c4:	48 8b 78 30          	mov    0x30(%rax),%rdi
    23c8:	e8 23 fe ff ff       	callq  21f0 <range_num_big_pages>
    23cd:	31 f6                	xor    %esi,%esi
    23cf:	4c 8d 64 24 28       	lea    0x28(%rsp),%r12
    23d4:	48 89 c2             	mov    %rax,%rdx
    23d7:	4c 89 e7             	mov    %r12,%rdi
    23da:	e8 00 00 00 00       	callq  23df <block_gpu_pte_clear_big+0x18f>
    23df:	e9 fe fe ff ff       	jmpq   22e2 <block_gpu_pte_clear_big+0x92>
    23e4:	e8 00 00 00 00       	callq  23e9 <block_gpu_pte_clear_big+0x199>
    23e9:	0f 1f 80 00 00 00 00 	nopl   0x0(%rax)

00000000000023f0 <block_gpu_pte_merge_big_and_end.isra.0>:
    23f0:	e8 00 00 00 00       	callq  23f5 <block_gpu_pte_merge_big_and_end.isra.0+0x5>
    23f5:	55                   	push   %rbp
    23f6:	48 89 e5             	mov    %rsp,%rbp
    23f9:	41 57                	push   %r15
    23fb:	49 89 d7             	mov    %rdx,%r15
    23fe:	41 56                	push   %r14
    2400:	49 89 f6             	mov    %rsi,%r14
    2403:	41 55                	push   %r13
    2405:	41 54                	push   %r12
    2407:	4d 89 cc             	mov    %r9,%r12
    240a:	53                   	push   %rbx
    240b:	48 89 fb             	mov    %rdi,%rbx
    240e:	48 83 ec 20          	sub    $0x20,%rsp
    2412:	48 8b 47 28          	mov    0x28(%rdi),%rax
    2416:	48 89 55 c8          	mov    %rdx,-0x38(%rbp)
    241a:	8b 56 10             	mov    0x10(%rsi),%edx
    241d:	48 89 4d b8          	mov    %rcx,-0x48(%rbp)
    2421:	48 8b 00             	mov    (%rax),%rax
    2424:	4c 89 45 c0          	mov    %r8,-0x40(%rbp)
    2428:	83 ea 01             	sub    $0x1,%edx
    242b:	48 8b 84 d0 40 0b 00 	mov    0xb40(%rax,%rdx,8),%rax
    2432:	00 
    2433:	44 8b 68 64          	mov    0x64(%rax),%r13d
    2437:	48 8b 40 58          	mov    0x58(%rax),%rax
    243b:	44 89 ef             	mov    %r13d,%edi
    243e:	48 8b 40 18          	mov    0x18(%rax),%rax
    2442:	e8 00 00 00 00       	callq  2447 <block_gpu_pte_merge_big_and_end.isra.0+0x57>
    2447:	4c 8b 45 c0          	mov    -0x40(%rbp),%r8
    244b:	4c 89 fa             	mov    %r15,%rdx
    244e:	4c 89 f6             	mov    %r14,%rsi
    2451:	48 89 c1             	mov    %rax,%rcx
    2454:	4d 89 e1             	mov    %r12,%r9
    2457:	48 89 df             	mov    %rbx,%rdi
    245a:	45 89 ee             	mov    %r13d,%r14d
    245d:	e8 ee fd ff ff       	callq  2250 <block_gpu_pte_clear_big>
    2462:	4c 89 ff             	mov    %r15,%rdi
    2465:	be 20 00 00 00       	mov    $0x20,%esi
    246a:	41 81 ce 00 10 00 00 	or     $0x1000,%r14d
    2471:	e8 00 00 00 00       	callq  2476 <block_gpu_pte_merge_big_and_end.isra.0+0x86>
    2476:	49 89 c7             	mov    %rax,%r15
    2479:	4c 89 e8             	mov    %r13,%rax
    247c:	48 f7 d8             	neg    %rax
    247f:	48 89 45 d0          	mov    %rax,-0x30(%rbp)
    2483:	49 83 ff 1f          	cmp    $0x1f,%r15
    2487:	77 43                	ja     24cc <block_gpu_pte_merge_big_and_end.isra.0+0xdc>
    2489:	48 8b 53 30          	mov    0x30(%rbx),%rdx
    248d:	45 31 c0             	xor    %r8d,%r8d
    2490:	44 89 f1             	mov    %r14d,%ecx
    2493:	4c 89 e7             	mov    %r12,%rdi
    2496:	49 8d 74 15 ff       	lea    -0x1(%r13,%rdx,1),%rsi
    249b:	4c 89 fa             	mov    %r15,%rdx
    249e:	48 23 75 d0          	and    -0x30(%rbp),%rsi
    24a2:	49 0f af d5          	imul   %r13,%rdx
    24a6:	48 01 d6             	add    %rdx,%rsi
    24a9:	4c 89 ea             	mov    %r13,%rdx
    24ac:	e8 00 00 00 00       	callq  24b1 <block_gpu_pte_merge_big_and_end.isra.0+0xc1>
    24b1:	48 8b 7d c8          	mov    -0x38(%rbp),%rdi
    24b5:	49 8d 57 01          	lea    0x1(%r15),%rdx
    24b9:	be 20 00 00 00       	mov    $0x20,%esi
    24be:	e8 00 00 00 00       	callq  24c3 <block_gpu_pte_merge_big_and_end.isra.0+0xd3>
    24c3:	49 89 c7             	mov    %rax,%r15
    24c6:	48 83 f8 1f          	cmp    $0x1f,%rax
    24ca:	76 bd                	jbe    2489 <block_gpu_pte_merge_big_and_end.isra.0+0x99>
    24cc:	48 8b 7d c0          	mov    -0x40(%rbp),%rdi
    24d0:	e8 00 00 00 00       	callq  24d5 <block_gpu_pte_merge_big_and_end.isra.0+0xe5>
    24d5:	8b 55 10             	mov    0x10(%rbp),%edx
    24d8:	48 8b 75 b8          	mov    -0x48(%rbp),%rsi
    24dc:	4c 89 e7             	mov    %r12,%rdi
    24df:	e8 00 00 00 00       	callq  24e4 <block_gpu_pte_merge_big_and_end.isra.0+0xf4>
    24e4:	48 83 c4 20          	add    $0x20,%rsp
    24e8:	5b                   	pop    %rbx
    24e9:	41 5c                	pop    %r12
    24eb:	41 5d                	pop    %r13
    24ed:	41 5e                	pop    %r14
    24ef:	41 5f                	pop    %r15
    24f1:	5d                   	pop    %rbp
    24f2:	c3                   	retq   
    24f3:	66 66 2e 0f 1f 84 00 	data16 nopw %cs:0x0(%rax,%rax,1)
    24fa:	00 00 00 00 
    24fe:	66 90                	xchg   %ax,%ax

0000000000002500 <uvm_va_block_retry_init>:
    2500:	e8 00 00 00 00       	callq  2505 <uvm_va_block_retry_init+0x5>
    2505:	55                   	push   %rbp
    2506:	48 89 e5             	mov    %rsp,%rbp
    2509:	48 85 ff             	test   %rdi,%rdi
    250c:	74 4e                	je     255c <uvm_va_block_retry_init+0x5c>
    250e:	48 8d 47 28          	lea    0x28(%rdi),%rax
    2512:	48 c7 47 10 00 00 00 	movq   $0x0,0x10(%rdi)
    2519:	00 
    251a:	48 89 47 28          	mov    %rax,0x28(%rdi)
    251e:	48 89 47 30          	mov    %rax,0x30(%rdi)
    2522:	48 8d 47 18          	lea    0x18(%rdi),%rax
    2526:	48 89 47 18          	mov    %rax,0x18(%rdi)
    252a:	48 89 47 20          	mov    %rax,0x20(%rdi)
    252e:	48 8d 47 38          	lea    0x38(%rdi),%rax
    2532:	48 89 47 38          	mov    %rax,0x38(%rdi)
    2536:	48 89 47 40          	mov    %rax,0x40(%rdi)
    253a:	48 8d 47 48          	lea    0x48(%rdi),%rax
    253e:	48 c7 07 00 00 00 00 	movq   $0x0,(%rdi)
    2545:	48 c7 47 08 00 00 00 	movq   $0x0,0x8(%rdi)
    254c:	00 
    254d:	c7 47 14 01 00 00 00 	movl   $0x1,0x14(%rdi)
    2554:	48 89 47 48          	mov    %rax,0x48(%rdi)
    2558:	48 89 47 50          	mov    %rax,0x50(%rdi)
    255c:	5d                   	pop    %rbp
    255d:	c3                   	retq   
    255e:	66 90                	xchg   %ax,%ax

0000000000002560 <uvm_va_block_retry_deinit>:
    2560:	e8 00 00 00 00       	callq  2565 <uvm_va_block_retry_deinit+0x5>
    2565:	48 85 ff             	test   %rdi,%rdi
    2568:	74 0b                	je     2575 <uvm_va_block_retry_deinit+0x15>
    256a:	55                   	push   %rbp
    256b:	48 89 e5             	mov    %rsp,%rbp
    256e:	e8 2d f0 ff ff       	callq  15a0 <uvm_va_block_retry_deinit.part.0>
    2573:	5d                   	pop    %rbp
    2574:	c3                   	retq   
    2575:	c3                   	retq   
    2576:	66 2e 0f 1f 84 00 00 	nopw   %cs:0x0(%rax,%rax,1)
    257d:	00 00 00 

0000000000002580 <uvm_va_block_init>:
    2580:	e8 00 00 00 00       	callq  2585 <uvm_va_block_init+0x5>
    2585:	55                   	push   %rbp
    2586:	8b 05 00 00 00 00    	mov    0x0(%rip),%eax        # 258c <uvm_va_block_init+0xc>
    258c:	45 31 c0             	xor    %r8d,%r8d
    258f:	31 c9                	xor    %ecx,%ecx
    2591:	31 d2                	xor    %edx,%edx
    2593:	48 89 e5             	mov    %rsp,%rbp
    2596:	85 c0                	test   %eax,%eax
    2598:	0f 84 94 00 00 00    	je     2632 <uvm_va_block_init+0xb2>
    259e:	be 50 03 00 00       	mov    $0x350,%esi
    25a3:	48 c7 c7 00 00 00 00 	mov    $0x0,%rdi
    25aa:	e8 00 00 00 00       	callq  25af <uvm_va_block_init+0x2f>
    25af:	48 89 05 00 00 00 00 	mov    %rax,0x0(%rip)        # 25b6 <uvm_va_block_init+0x36>
    25b6:	48 85 c0             	test   %rax,%rax
    25b9:	74 70                	je     262b <uvm_va_block_init+0xab>
    25bb:	45 31 c0             	xor    %r8d,%r8d
    25be:	31 c9                	xor    %ecx,%ecx
    25c0:	31 d2                	xor    %edx,%edx
    25c2:	be c0 01 00 00       	mov    $0x1c0,%esi
    25c7:	48 c7 c7 00 00 00 00 	mov    $0x0,%rdi
    25ce:	e8 00 00 00 00       	callq  25d3 <uvm_va_block_init+0x53>
    25d3:	48 89 05 00 00 00 00 	mov    %rax,0x0(%rip)        # 25da <uvm_va_block_init+0x5a>
    25da:	48 85 c0             	test   %rax,%rax
    25dd:	74 4c                	je     262b <uvm_va_block_init+0xab>
    25df:	45 31 c0             	xor    %r8d,%r8d
    25e2:	31 c9                	xor    %ecx,%ecx
    25e4:	31 d2                	xor    %edx,%edx
    25e6:	be 40 00 00 00       	mov    $0x40,%esi
    25eb:	48 c7 c7 00 00 00 00 	mov    $0x0,%rdi
    25f2:	e8 00 00 00 00       	callq  25f7 <uvm_va_block_init+0x77>
    25f7:	48 89 05 00 00 00 00 	mov    %rax,0x0(%rip)        # 25fe <uvm_va_block_init+0x7e>
    25fe:	48 85 c0             	test   %rax,%rax
    2601:	74 28                	je     262b <uvm_va_block_init+0xab>
    2603:	45 31 c0             	xor    %r8d,%r8d
    2606:	31 c9                	xor    %ecx,%ecx
    2608:	31 d2                	xor    %edx,%edx
    260a:	be c0 05 00 00       	mov    $0x5c0,%esi
    260f:	48 c7 c7 00 00 00 00 	mov    $0x0,%rdi
    2616:	e8 00 00 00 00       	callq  261b <uvm_va_block_init+0x9b>
    261b:	48 89 05 00 00 00 00 	mov    %rax,0x0(%rip)        # 2622 <uvm_va_block_init+0xa2>
    2622:	48 85 c0             	test   %rax,%rax
    2625:	74 04                	je     262b <uvm_va_block_init+0xab>
    2627:	31 c0                	xor    %eax,%eax
    2629:	5d                   	pop    %rbp
    262a:	c3                   	retq   
    262b:	b8 51 00 00 00       	mov    $0x51,%eax
    2630:	5d                   	pop    %rbp
    2631:	c3                   	retq   
    2632:	be 40 03 00 00       	mov    $0x340,%esi
    2637:	48 c7 c7 00 00 00 00 	mov    $0x0,%rdi
    263e:	e8 00 00 00 00       	callq  2643 <uvm_va_block_init+0xc3>
    2643:	48 89 05 00 00 00 00 	mov    %rax,0x0(%rip)        # 264a <uvm_va_block_init+0xca>
    264a:	e9 67 ff ff ff       	jmpq   25b6 <uvm_va_block_init+0x36>
    264f:	90                   	nop

0000000000002650 <uvm_va_block_exit>:
    2650:	e8 00 00 00 00       	callq  2655 <uvm_va_block_exit+0x5>
    2655:	55                   	push   %rbp
    2656:	48 8b 3d 00 00 00 00 	mov    0x0(%rip),%rdi        # 265d <uvm_va_block_exit+0xd>
    265d:	48 89 e5             	mov    %rsp,%rbp
    2660:	48 85 ff             	test   %rdi,%rdi
    2663:	74 05                	je     266a <uvm_va_block_exit+0x1a>
    2665:	e8 00 00 00 00       	callq  266a <uvm_va_block_exit+0x1a>
    266a:	48 8b 3d 00 00 00 00 	mov    0x0(%rip),%rdi        # 2671 <uvm_va_block_exit+0x21>
    2671:	48 c7 05 00 00 00 00 	movq   $0x0,0x0(%rip)        # 267c <uvm_va_block_exit+0x2c>
    2678:	00 00 00 00 
    267c:	48 85 ff             	test   %rdi,%rdi
    267f:	74 05                	je     2686 <uvm_va_block_exit+0x36>
    2681:	e8 00 00 00 00       	callq  2686 <uvm_va_block_exit+0x36>
    2686:	48 8b 3d 00 00 00 00 	mov    0x0(%rip),%rdi        # 268d <uvm_va_block_exit+0x3d>
    268d:	48 c7 05 00 00 00 00 	movq   $0x0,0x0(%rip)        # 2698 <uvm_va_block_exit+0x48>
    2694:	00 00 00 00 
    2698:	48 85 ff             	test   %rdi,%rdi
    269b:	74 05                	je     26a2 <uvm_va_block_exit+0x52>
    269d:	e8 00 00 00 00       	callq  26a2 <uvm_va_block_exit+0x52>
    26a2:	48 8b 3d 00 00 00 00 	mov    0x0(%rip),%rdi        # 26a9 <uvm_va_block_exit+0x59>
    26a9:	48 c7 05 00 00 00 00 	movq   $0x0,0x0(%rip)        # 26b4 <uvm_va_block_exit+0x64>
    26b0:	00 00 00 00 
    26b4:	48 85 ff             	test   %rdi,%rdi
    26b7:	74 05                	je     26be <uvm_va_block_exit+0x6e>
    26b9:	e8 00 00 00 00       	callq  26be <uvm_va_block_exit+0x6e>
    26be:	48 c7 05 00 00 00 00 	movq   $0x0,0x0(%rip)        # 26c9 <uvm_va_block_exit+0x79>
    26c5:	00 00 00 00 
    26c9:	5d                   	pop    %rbp
    26ca:	c3                   	retq   
    26cb:	0f 1f 44 00 00       	nopl   0x0(%rax,%rax,1)

00000000000026d0 <uvm_va_block_context_alloc>:
    26d0:	e8 00 00 00 00       	callq  26d5 <uvm_va_block_context_alloc+0x5>
    26d5:	55                   	push   %rbp
    26d6:	be c0 0c 01 00       	mov    $0x10cc0,%esi
    26db:	48 89 e5             	mov    %rsp,%rbp
    26de:	53                   	push   %rbx
    26df:	48 89 fb             	mov    %rdi,%rbx
    26e2:	48 8b 3d 00 00 00 00 	mov    0x0(%rip),%rdi        # 26e9 <uvm_va_block_context_alloc+0x19>
    26e9:	e8 00 00 00 00       	callq  26ee <uvm_va_block_context_alloc+0x1e>
    26ee:	48 85 c0             	test   %rax,%rax
    26f1:	74 07                	je     26fa <uvm_va_block_context_alloc+0x2a>
    26f3:	48 89 98 30 05 00 00 	mov    %rbx,0x530(%rax)
    26fa:	5b                   	pop    %rbx
    26fb:	5d                   	pop    %rbp
    26fc:	c3                   	retq   
    26fd:	0f 1f 00             	nopl   (%rax)

0000000000002700 <uvm_va_block_context_free>:
    2700:	e8 00 00 00 00       	callq  2705 <uvm_va_block_context_free+0x5>
    2705:	48 85 ff             	test   %rdi,%rdi
    2708:	74 0b                	je     2715 <uvm_va_block_context_free+0x15>
    270a:	55                   	push   %rbp
    270b:	48 89 e5             	mov    %rsp,%rbp
    270e:	e8 2d f0 ff ff       	callq  1740 <uvm_va_block_context_free.part.0>
    2713:	5d                   	pop    %rbp
    2714:	c3                   	retq   
    2715:	c3                   	retq   
    2716:	66 2e 0f 1f 84 00 00 	nopw   %cs:0x0(%rax,%rax,1)
    271d:	00 00 00 

0000000000002720 <uvm_va_block_gpu_chunk_index_range>:
    2720:	e8 00 00 00 00       	callq  2725 <uvm_va_block_gpu_chunk_index_range+0x5>
    2725:	55                   	push   %rbp
    2726:	48 89 e5             	mov    %rsp,%rbp
    2729:	41 57                	push   %r15
    272b:	41 56                	push   %r14
    272d:	41 55                	push   %r13
    272f:	41 54                	push   %r12
    2731:	53                   	push   %rbx
    2732:	48 83 ec 08          	sub    $0x8,%rsp
    2736:	48 8b 02             	mov    (%rdx),%rax
    2739:	4c 89 45 d0          	mov    %r8,-0x30(%rbp)
    273d:	44 0f b7 c1          	movzwl %cx,%r8d
    2741:	44 8b 98 88 5e 00 00 	mov    0x5e88(%rax),%r11d
    2748:	41 f7 c3 00 00 20 00 	test   $0x200000,%r11d
    274f:	74 0d                	je     275e <uvm_va_block_gpu_chunk_index_range+0x3e>
    2751:	48 81 fe 00 00 20 00 	cmp    $0x200000,%rsi
    2758:	0f 84 18 01 00 00    	je     2876 <uvm_va_block_gpu_chunk_index_range+0x156>
    275e:	ba 01 00 00 00       	mov    $0x1,%edx
    2763:	44 89 d9             	mov    %r11d,%ecx
    2766:	49 c1 e0 0c          	shl    $0xc,%r8
    276a:	89 d3                	mov    %edx,%ebx
    276c:	81 e1 ff ff df ff    	and    $0xffdfffff,%ecx
    2772:	48 0f bd c9          	bsr    %rcx,%rcx
    2776:	d3 e3                	shl    %cl,%ebx
    2778:	48 89 f1             	mov    %rsi,%rcx
    277b:	89 d8                	mov    %ebx,%eax
    277d:	48 09 f9             	or     %rdi,%rcx
    2780:	4c 8d 48 ff          	lea    -0x1(%rax),%r9
    2784:	49 85 c9             	test   %rcx,%r9
    2787:	0f 84 f2 00 00 00    	je     287f <uvm_va_block_gpu_chunk_index_range+0x15f>
    278d:	41 81 e3 ff ef df ff 	and    $0xffdfefff,%r11d
    2794:	0f 84 a9 00 00 00    	je     2843 <uvm_va_block_gpu_chunk_index_range+0x123>
    279a:	44 89 d9             	mov    %r11d,%ecx
    279d:	48 0f bd c9          	bsr    %rcx,%rcx
    27a1:	d3 e2                	shl    %cl,%edx
    27a3:	83 f9 16             	cmp    $0x16,%ecx
    27a6:	0f 84 97 00 00 00    	je     2843 <uvm_va_block_gpu_chunk_index_range+0x123>
    27ac:	49 01 f8             	add    %rdi,%r8
    27af:	4c 8d 0c 3e          	lea    (%rsi,%rdi,1),%r9
    27b3:	4c 8d 67 ff          	lea    -0x1(%rdi),%r12
    27b7:	45 31 d2             	xor    %r10d,%r10d
    27ba:	31 db                	xor    %ebx,%ebx
    27bc:	41 be ff ff ff ff    	mov    $0xffffffff,%r14d
    27c2:	41 bd 01 00 00 00    	mov    $0x1,%r13d
    27c8:	89 d6                	mov    %edx,%esi
    27ca:	48 89 f1             	mov    %rsi,%rcx
    27cd:	4e 8d 3c 26          	lea    (%rsi,%r12,1),%r15
    27d1:	48 f7 d9             	neg    %rcx
    27d4:	48 89 c8             	mov    %rcx,%rax
    27d7:	49 21 cf             	and    %rcx,%r15
    27da:	4c 21 c0             	and    %r8,%rax
    27dd:	49 39 c7             	cmp    %rax,%r15
    27e0:	77 32                	ja     2814 <uvm_va_block_gpu_chunk_index_range+0xf4>
    27e2:	4c 21 c9             	and    %r9,%rcx
    27e5:	48 39 c8             	cmp    %rcx,%rax
    27e8:	73 09                	jae    27f3 <uvm_va_block_gpu_chunk_index_range+0xd3>
    27ea:	85 db                	test   %ebx,%ebx
    27ec:	4c 0f 44 c0          	cmove  %rax,%r8
    27f0:	0f 44 da             	cmove  %edx,%ebx
    27f3:	44 29 f8             	sub    %r15d,%eax
    27f6:	44 89 f1             	mov    %r14d,%ecx
    27f9:	0f bd ca             	bsr    %edx,%ecx
    27fc:	d3 e8                	shr    %cl,%eax
    27fe:	49 01 c2             	add    %rax,%r10
    2801:	48 0f af c6          	imul   %rsi,%rax
    2805:	49 29 c0             	sub    %rax,%r8
    2808:	49 29 c1             	sub    %rax,%r9
    280b:	4c 39 c7             	cmp    %r8,%rdi
    280e:	75 04                	jne    2814 <uvm_va_block_gpu_chunk_index_range+0xf4>
    2810:	85 db                	test   %ebx,%ebx
    2812:	75 55                	jne    2869 <uvm_va_block_gpu_chunk_index_range+0x149>
    2814:	8d 4a ff             	lea    -0x1(%rdx),%ecx
    2817:	44 21 d9             	and    %r11d,%ecx
    281a:	74 10                	je     282c <uvm_va_block_gpu_chunk_index_range+0x10c>
    281c:	44 89 ea             	mov    %r13d,%edx
    281f:	89 c9                	mov    %ecx,%ecx
    2821:	48 0f bd c9          	bsr    %rcx,%rcx
    2825:	d3 e2                	shl    %cl,%edx
    2827:	83 f9 16             	cmp    $0x16,%ecx
    282a:	75 9c                	jne    27c8 <uvm_va_block_gpu_chunk_index_range+0xa8>
    282c:	49 29 f8             	sub    %rdi,%r8
    282f:	ba 00 10 00 00       	mov    $0x1000,%edx
    2834:	49 c1 e8 0c          	shr    $0xc,%r8
    2838:	85 db                	test   %ebx,%ebx
    283a:	0f 44 da             	cmove  %edx,%ebx
    283d:	4b 8d 04 10          	lea    (%r8,%r10,1),%rax
    2841:	eb 0c                	jmp    284f <uvm_va_block_gpu_chunk_index_range+0x12f>
    2843:	4c 89 c0             	mov    %r8,%rax
    2846:	bb 00 10 00 00       	mov    $0x1000,%ebx
    284b:	48 c1 e8 0c          	shr    $0xc,%rax
    284f:	48 8b 7d d0          	mov    -0x30(%rbp),%rdi
    2853:	48 85 ff             	test   %rdi,%rdi
    2856:	74 02                	je     285a <uvm_va_block_gpu_chunk_index_range+0x13a>
    2858:	89 1f                	mov    %ebx,(%rdi)
    285a:	48 83 c4 08          	add    $0x8,%rsp
    285e:	5b                   	pop    %rbx
    285f:	41 5c                	pop    %r12
    2861:	41 5d                	pop    %r13
    2863:	41 5e                	pop    %r14
    2865:	41 5f                	pop    %r15
    2867:	5d                   	pop    %rbp
    2868:	c3                   	retq   
    2869:	49 29 f8             	sub    %rdi,%r8
    286c:	49 c1 e8 0c          	shr    $0xc,%r8
    2870:	4b 8d 04 10          	lea    (%r8,%r10,1),%rax
    2874:	eb d9                	jmp    284f <uvm_va_block_gpu_chunk_index_range+0x12f>
    2876:	31 c0                	xor    %eax,%eax
    2878:	bb 00 00 20 00       	mov    $0x200000,%ebx
    287d:	eb d0                	jmp    284f <uvm_va_block_gpu_chunk_index_range+0x12f>
    287f:	b9 ff ff ff ff       	mov    $0xffffffff,%ecx
    2884:	48 0f bd c8          	bsr    %rax,%rcx
    2888:	4c 89 c0             	mov    %r8,%rax
    288b:	48 d3 e8             	shr    %cl,%rax
    288e:	eb bf                	jmp    284f <uvm_va_block_gpu_chunk_index_range+0x12f>

0000000000002890 <block_num_gpu_chunks>:
    2890:	e8 00 00 00 00       	callq  2895 <block_num_gpu_chunks+0x5>
    2895:	55                   	push   %rbp
    2896:	48 89 f2             	mov    %rsi,%rdx
    2899:	48 89 e5             	mov    %rsp,%rbp
    289c:	48 83 ec 10          	sub    $0x10,%rsp
    28a0:	4c 8b 4f 30          	mov    0x30(%rdi),%r9
    28a4:	65 48 8b 04 25 28 00 	mov    %gs:0x28,%rax
    28ab:	00 00 
    28ad:	48 89 45 f8          	mov    %rax,-0x8(%rbp)
    28b1:	31 c0                	xor    %eax,%eax
    28b3:	48 8b 47 38          	mov    0x38(%rdi),%rax
    28b7:	4c 8d 45 f4          	lea    -0xc(%rbp),%r8
    28bb:	4c 89 cf             	mov    %r9,%rdi
    28be:	4c 29 c8             	sub    %r9,%rax
    28c1:	48 89 c1             	mov    %rax,%rcx
    28c4:	48 8d 70 01          	lea    0x1(%rax),%rsi
    28c8:	48 c1 e9 0c          	shr    $0xc,%rcx
    28cc:	0f b7 c9             	movzwl %cx,%ecx
    28cf:	e8 00 00 00 00       	callq  28d4 <block_num_gpu_chunks+0x44>
    28d4:	48 83 c0 01          	add    $0x1,%rax
    28d8:	48 8b 55 f8          	mov    -0x8(%rbp),%rdx
    28dc:	65 48 33 14 25 28 00 	xor    %gs:0x28,%rdx
    28e3:	00 00 
    28e5:	75 02                	jne    28e9 <block_num_gpu_chunks+0x59>
    28e7:	c9                   	leaveq 
    28e8:	c3                   	retq   
    28e9:	e8 00 00 00 00       	callq  28ee <block_num_gpu_chunks+0x5e>
    28ee:	66 90                	xchg   %ax,%ax

00000000000028f0 <block_gpu_state_get_alloc.part.0>:
    28f0:	e8 00 00 00 00       	callq  28f5 <block_gpu_state_get_alloc.part.0+0x5>
    28f5:	55                   	push   %rbp
    28f6:	48 89 e5             	mov    %rsp,%rbp
    28f9:	41 57                	push   %r15
    28fb:	49 89 ff             	mov    %rdi,%r15
    28fe:	41 56                	push   %r14
    2900:	41 55                	push   %r13
    2902:	41 54                	push   %r12
    2904:	53                   	push   %rbx
    2905:	48 89 f3             	mov    %rsi,%rbx
    2908:	be c0 0d 01 00       	mov    $0x10dc0,%esi
    290d:	48 83 ec 10          	sub    $0x10,%rsp
    2911:	48 8b 3d 00 00 00 00 	mov    0x0(%rip),%rdi        # 2918 <block_gpu_state_get_alloc.part.0+0x28>
    2918:	e8 00 00 00 00       	callq  291d <block_gpu_state_get_alloc.part.0+0x2d>
    291d:	49 89 c4             	mov    %rax,%r12
    2920:	48 85 c0             	test   %rax,%rax
    2923:	0f 84 68 01 00 00    	je     2a91 <block_gpu_state_get_alloc.part.0+0x1a1>
    2929:	48 89 de             	mov    %rbx,%rsi
    292c:	4c 89 ff             	mov    %r15,%rdi
    292f:	e8 5c ff ff ff       	callq  2890 <block_num_gpu_chunks>
    2934:	48 c7 c1 00 00 00 00 	mov    $0x0,%rcx
    293b:	ba 13 03 00 00       	mov    $0x313,%edx
    2940:	48 c7 c6 00 00 00 00 	mov    $0x0,%rsi
    2947:	48 8d 3c c5 00 00 00 	lea    0x0(,%rax,8),%rdi
    294e:	00 
    294f:	e8 00 00 00 00       	callq  2954 <block_gpu_state_get_alloc.part.0+0x64>
    2954:	49 89 84 24 a0 00 00 	mov    %rax,0xa0(%r12)
    295b:	00 
    295c:	48 85 c0             	test   %rax,%rax
    295f:	0f 84 7f 01 00 00    	je     2ae4 <block_gpu_state_get_alloc.part.0+0x1f4>
    2965:	49 8b 47 38          	mov    0x38(%r15),%rax
    2969:	48 c7 c1 00 00 00 00 	mov    $0x0,%rcx
    2970:	ba 17 03 00 00       	mov    $0x317,%edx
    2975:	48 c7 c6 00 00 00 00 	mov    $0x0,%rsi
    297c:	48 8d 78 01          	lea    0x1(%rax),%rdi
    2980:	49 2b 7f 30          	sub    0x30(%r15),%rdi
    2984:	48 c1 ef 0c          	shr    $0xc,%rdi
    2988:	48 c1 e7 03          	shl    $0x3,%rdi
    298c:	e8 00 00 00 00       	callq  2991 <block_gpu_state_get_alloc.part.0+0xa1>
    2991:	49 89 84 24 88 00 00 	mov    %rax,0x88(%r12)
    2998:	00 
    2999:	48 85 c0             	test   %rax,%rax
    299c:	0f 84 30 01 00 00    	je     2ad2 <block_gpu_state_get_alloc.part.0+0x1e2>
    29a2:	8b 43 10             	mov    0x10(%rbx),%eax
    29a5:	8b 0d 00 00 00 00    	mov    0x0(%rip),%ecx        # 29ab <block_gpu_state_get_alloc.part.0+0xbb>
    29ab:	41 c6 84 24 90 00 00 	movb   $0x0,0x90(%r12)
    29b2:	00 00 
    29b4:	83 e8 01             	sub    $0x1,%eax
    29b7:	4d 89 a4 c7 48 01 00 	mov    %r12,0x148(%r15,%rax,8)
    29be:	00 
    29bf:	8b 43 10             	mov    0x10(%rbx),%eax
    29c2:	49 8b 57 38          	mov    0x38(%r15),%rdx
    29c6:	83 e8 01             	sub    $0x1,%eax
    29c9:	4d 8b b4 c7 48 01 00 	mov    0x148(%r15,%rax,8),%r14
    29d0:	00 
    29d1:	48 89 d0             	mov    %rdx,%rax
    29d4:	49 2b 47 30          	sub    0x30(%r15),%rax
    29d8:	85 c9                	test   %ecx,%ecx
    29da:	74 0c                	je     29e8 <block_gpu_state_get_alloc.part.0+0xf8>
    29dc:	48 3d ff ff 1f 00    	cmp    $0x1fffff,%rax
    29e2:	0f 84 bb 00 00 00    	je     2aa3 <block_gpu_state_get_alloc.part.0+0x1b3>
    29e8:	48 8d 8b f0 09 00 00 	lea    0x9f0(%rbx),%rcx
    29ef:	48 83 c0 01          	add    $0x1,%rax
    29f3:	45 31 ed             	xor    %r13d,%r13d
    29f6:	48 89 4d c8          	mov    %rcx,-0x38(%rbp)
    29fa:	a9 00 f0 ff 0f       	test   $0xffff000,%eax
    29ff:	0f 84 8c 00 00 00    	je     2a91 <block_gpu_state_get_alloc.part.0+0x1a1>
    2a05:	49 8b 87 98 00 00 00 	mov    0x98(%r15),%rax
    2a0c:	45 0f b7 cd          	movzwl %r13w,%r9d
    2a10:	4a 8d 0c cd 00 00 00 	lea    0x0(,%r9,8),%rcx
    2a17:	00 
    2a18:	4a 8b 34 c8          	mov    (%rax,%r9,8),%rsi
    2a1c:	48 85 f6             	test   %rsi,%rsi
    2a1f:	74 56                	je     2a77 <block_gpu_state_get_alloc.part.0+0x187>
    2a21:	49 03 8e 88 00 00 00 	add    0x88(%r14),%rcx
    2a28:	ba 00 10 00 00       	mov    $0x1000,%edx
    2a2d:	48 89 df             	mov    %rbx,%rdi
    2a30:	4c 89 4d d0          	mov    %r9,-0x30(%rbp)
    2a34:	e8 00 00 00 00       	callq  2a39 <block_gpu_state_get_alloc.part.0+0x149>
    2a39:	85 c0                	test   %eax,%eax
    2a3b:	0f 85 86 00 00 00    	jne    2ac7 <block_gpu_state_get_alloc.part.0+0x1d7>
    2a41:	4c 8b 4d d0          	mov    -0x30(%rbp),%r9
    2a45:	48 8b 7d c8          	mov    -0x38(%rbp),%rdi
    2a49:	4d 89 f8             	mov    %r15,%r8
    2a4c:	b9 00 10 00 00       	mov    $0x1000,%ecx
    2a51:	49 8b 86 88 00 00 00 	mov    0x88(%r14),%rax
    2a58:	4c 89 ca             	mov    %r9,%rdx
    2a5b:	4a 8b 34 c8          	mov    (%rax,%r9,8),%rsi
    2a5f:	48 c1 e2 0c          	shl    $0xc,%rdx
    2a63:	45 31 c9             	xor    %r9d,%r9d
    2a66:	49 03 57 30          	add    0x30(%r15),%rdx
    2a6a:	e8 00 00 00 00       	callq  2a6f <block_gpu_state_get_alloc.part.0+0x17f>
    2a6f:	85 c0                	test   %eax,%eax
    2a71:	75 54                	jne    2ac7 <block_gpu_state_get_alloc.part.0+0x1d7>
    2a73:	49 8b 57 38          	mov    0x38(%r15),%rdx
    2a77:	48 8d 42 01          	lea    0x1(%rdx),%rax
    2a7b:	49 2b 47 30          	sub    0x30(%r15),%rax
    2a7f:	41 83 c5 01          	add    $0x1,%r13d
    2a83:	48 c1 e8 0c          	shr    $0xc,%rax
    2a87:	66 41 39 c5          	cmp    %ax,%r13w
    2a8b:	0f 85 74 ff ff ff    	jne    2a05 <block_gpu_state_get_alloc.part.0+0x115>
    2a91:	48 83 c4 10          	add    $0x10,%rsp
    2a95:	4c 89 e0             	mov    %r12,%rax
    2a98:	5b                   	pop    %rbx
    2a99:	41 5c                	pop    %r12
    2a9b:	41 5d                	pop    %r13
    2a9d:	41 5e                	pop    %r14
    2a9f:	41 5f                	pop    %r15
    2aa1:	5d                   	pop    %rbp
    2aa2:	c3                   	retq   
    2aa3:	49 8b b7 40 01 00 00 	mov    0x140(%r15),%rsi
    2aaa:	48 85 f6             	test   %rsi,%rsi
    2aad:	74 e2                	je     2a91 <block_gpu_state_get_alloc.part.0+0x1a1>
    2aaf:	49 8d 8e 98 00 00 00 	lea    0x98(%r14),%rcx
    2ab6:	ba 00 00 20 00       	mov    $0x200000,%edx
    2abb:	48 89 df             	mov    %rbx,%rdi
    2abe:	e8 00 00 00 00       	callq  2ac3 <block_gpu_state_get_alloc.part.0+0x1d3>
    2ac3:	85 c0                	test   %eax,%eax
    2ac5:	74 43                	je     2b0a <block_gpu_state_get_alloc.part.0+0x21a>
    2ac7:	48 89 de             	mov    %rbx,%rsi
    2aca:	4c 89 ff             	mov    %r15,%rdi
    2acd:	e8 fe d7 ff ff       	callq  2d0 <block_gpu_unmap_phys_all_cpu_pages>
    2ad2:	49 8b bc 24 a0 00 00 	mov    0xa0(%r12),%rdi
    2ad9:	00 
    2ada:	48 85 ff             	test   %rdi,%rdi
    2add:	74 05                	je     2ae4 <block_gpu_state_get_alloc.part.0+0x1f4>
    2adf:	e8 00 00 00 00       	callq  2ae4 <block_gpu_state_get_alloc.part.0+0x1f4>
    2ae4:	48 8b 3d 00 00 00 00 	mov    0x0(%rip),%rdi        # 2aeb <block_gpu_state_get_alloc.part.0+0x1fb>
    2aeb:	4c 89 e6             	mov    %r12,%rsi
    2aee:	45 31 e4             	xor    %r12d,%r12d
    2af1:	e8 00 00 00 00       	callq  2af6 <block_gpu_state_get_alloc.part.0+0x206>
    2af6:	8b 43 10             	mov    0x10(%rbx),%eax
    2af9:	83 e8 01             	sub    $0x1,%eax
    2afc:	49 c7 84 c7 48 01 00 	movq   $0x0,0x148(%r15,%rax,8)
    2b03:	00 00 00 00 00 
    2b08:	eb 87                	jmp    2a91 <block_gpu_state_get_alloc.part.0+0x1a1>
    2b0a:	41 c6 86 90 00 00 00 	movb   $0x1,0x90(%r14)
    2b11:	01 
    2b12:	49 8b 57 30          	mov    0x30(%r15),%rdx
    2b16:	45 31 c9             	xor    %r9d,%r9d
    2b19:	48 8d bb f0 09 00 00 	lea    0x9f0(%rbx),%rdi
    2b20:	49 8b b6 98 00 00 00 	mov    0x98(%r14),%rsi
    2b27:	4d 89 f8             	mov    %r15,%r8
    2b2a:	b9 00 00 20 00       	mov    $0x200000,%ecx
    2b2f:	e8 00 00 00 00       	callq  2b34 <block_gpu_state_get_alloc.part.0+0x244>
    2b34:	85 c0                	test   %eax,%eax
    2b36:	0f 84 55 ff ff ff    	je     2a91 <block_gpu_state_get_alloc.part.0+0x1a1>
    2b3c:	eb 89                	jmp    2ac7 <block_gpu_state_get_alloc.part.0+0x1d7>
    2b3e:	66 90                	xchg   %ax,%ax

0000000000002b40 <block_resident_mask_get_alloc>:
    2b40:	e8 00 00 00 00       	callq  2b45 <block_resident_mask_get_alloc+0x5>
    2b45:	85 f6                	test   %esi,%esi
    2b47:	74 23                	je     2b6c <block_resident_mask_get_alloc+0x2c>
    2b49:	48 8b 47 28          	mov    0x28(%rdi),%rax
    2b4d:	8d 56 ff             	lea    -0x1(%rsi),%edx
    2b50:	48 8b 00             	mov    (%rax),%rax
    2b53:	48 8b 74 d0 08       	mov    0x8(%rax,%rdx,8),%rsi
    2b58:	8b 46 10             	mov    0x10(%rsi),%eax
    2b5b:	83 e8 01             	sub    $0x1,%eax
    2b5e:	48 8b 84 c7 48 01 00 	mov    0x148(%rdi,%rax,8),%rax
    2b65:	00 
    2b66:	48 85 c0             	test   %rax,%rax
    2b69:	74 06                	je     2b71 <block_resident_mask_get_alloc+0x31>
    2b6b:	c3                   	retq   
    2b6c:	48 8d 47 58          	lea    0x58(%rdi),%rax
    2b70:	c3                   	retq   
    2b71:	55                   	push   %rbp
    2b72:	48 89 e5             	mov    %rsp,%rbp
    2b75:	e8 76 fd ff ff       	callq  28f0 <block_gpu_state_get_alloc.part.0>
    2b7a:	5d                   	pop    %rbp
    2b7b:	c3                   	retq   
    2b7c:	0f 1f 40 00          	nopl   0x0(%rax)

0000000000002b80 <block_pre_populate_pde1_gpu.isra.0>:
    2b80:	e8 00 00 00 00       	callq  2b85 <block_pre_populate_pde1_gpu.isra.0+0x5>
    2b85:	55                   	push   %rbp
    2b86:	48 89 e5             	mov    %rsp,%rbp
    2b89:	41 56                	push   %r14
    2b8b:	49 89 d6             	mov    %rdx,%r14
    2b8e:	41 55                	push   %r13
    2b90:	49 89 f5             	mov    %rsi,%r13
    2b93:	41 54                	push   %r12
    2b95:	8b 46 10             	mov    0x10(%rsi),%eax
    2b98:	49 89 fc             	mov    %rdi,%r12
    2b9b:	83 e8 01             	sub    $0x1,%eax
    2b9e:	48 83 bc c7 48 01 00 	cmpq   $0x0,0x148(%rdi,%rax,8)
    2ba5:	00 00 
    2ba7:	74 47                	je     2bf0 <block_pre_populate_pde1_gpu.isra.0+0x70>
    2ba9:	49 8b 44 24 38       	mov    0x38(%r12),%rax
    2bae:	48 83 c0 01          	add    $0x1,%rax
    2bb2:	49 2b 44 24 30       	sub    0x30(%r12),%rax
    2bb7:	48 3d ff ff 1f 00    	cmp    $0x1fffff,%rax
    2bbd:	76 2a                	jbe    2be9 <block_pre_populate_pde1_gpu.isra.0+0x69>
    2bbf:	4c 89 ee             	mov    %r13,%rsi
    2bc2:	4c 89 e7             	mov    %r12,%rdi
    2bc5:	e8 36 df ff ff       	callq  b00 <block_gpu_supports_2m.part.0>
    2bca:	ba 00 00 20 00       	mov    $0x200000,%edx
    2bcf:	84 c0                	test   %al,%al
    2bd1:	74 16                	je     2be9 <block_pre_populate_pde1_gpu.isra.0+0x69>
    2bd3:	4c 89 f1             	mov    %r14,%rcx
    2bd6:	4c 89 ee             	mov    %r13,%rsi
    2bd9:	4c 89 e7             	mov    %r12,%rdi
    2bdc:	e8 cf df ff ff       	callq  bb0 <block_alloc_ptes_with_retry>
    2be1:	41 5c                	pop    %r12
    2be3:	41 5d                	pop    %r13
    2be5:	41 5e                	pop    %r14
    2be7:	5d                   	pop    %rbp
    2be8:	c3                   	retq   
    2be9:	ba 00 00 01 00       	mov    $0x10000,%edx
    2bee:	eb e3                	jmp    2bd3 <block_pre_populate_pde1_gpu.isra.0+0x53>
    2bf0:	e8 fb fc ff ff       	callq  28f0 <block_gpu_state_get_alloc.part.0>
    2bf5:	eb b2                	jmp    2ba9 <block_pre_populate_pde1_gpu.isra.0+0x29>
    2bf7:	66 0f 1f 84 00 00 00 	nopw   0x0(%rax,%rax,1)
    2bfe:	00 00 

0000000000002c00 <block_gpu_map_all_chunks_indirect_peer>:
    2c00:	e8 00 00 00 00       	callq  2c05 <block_gpu_map_all_chunks_indirect_peer+0x5>
    2c05:	55                   	push   %rbp
    2c06:	48 89 e5             	mov    %rsp,%rbp
    2c09:	41 57                	push   %r15
    2c0b:	41 56                	push   %r14
    2c0d:	41 55                	push   %r13
    2c0f:	41 54                	push   %r12
    2c11:	53                   	push   %rbx
    2c12:	48 83 ec 18          	sub    $0x18,%rsp
    2c16:	8b 46 10             	mov    0x10(%rsi),%eax
    2c19:	83 e8 01             	sub    $0x1,%eax
    2c1c:	4c 8b a4 c7 48 01 00 	mov    0x148(%rdi,%rax,8),%r12
    2c23:	00 
    2c24:	4d 85 e4             	test   %r12,%r12
    2c27:	0f 84 81 00 00 00    	je     2cae <block_gpu_map_all_chunks_indirect_peer+0xae>
    2c2d:	49 83 bc 24 a0 00 00 	cmpq   $0x0,0xa0(%r12)
    2c34:	00 00 
    2c36:	74 76                	je     2cae <block_gpu_map_all_chunks_indirect_peer+0xae>
    2c38:	49 89 fe             	mov    %rdi,%r14
    2c3b:	49 89 f5             	mov    %rsi,%r13
    2c3e:	48 89 d3             	mov    %rdx,%rbx
    2c41:	e8 4a fc ff ff       	callq  2890 <block_num_gpu_chunks>
    2c46:	48 89 45 c8          	mov    %rax,-0x38(%rbp)
    2c4a:	48 85 c0             	test   %rax,%rax
    2c4d:	74 5f                	je     2cae <block_gpu_map_all_chunks_indirect_peer+0xae>
    2c4f:	49 8d 85 70 04 00 00 	lea    0x470(%r13),%rax
    2c56:	45 31 ff             	xor    %r15d,%r15d
    2c59:	48 89 45 c0          	mov    %rax,-0x40(%rbp)
    2c5d:	49 8b 84 24 a0 00 00 	mov    0xa0(%r12),%rax
    2c64:	00 
    2c65:	4e 8b 14 f8          	mov    (%rax,%r15,8),%r10
    2c69:	4d 85 d2             	test   %r10,%r10
    2c6c:	74 36                	je     2ca4 <block_gpu_map_all_chunks_indirect_peer+0xa4>
    2c6e:	48 8b 7d c0          	mov    -0x40(%rbp),%rdi
    2c72:	48 89 da             	mov    %rbx,%rdx
    2c75:	4c 89 d6             	mov    %r10,%rsi
    2c78:	4c 89 55 d0          	mov    %r10,-0x30(%rbp)
    2c7c:	e8 00 00 00 00       	callq  2c81 <block_gpu_map_all_chunks_indirect_peer+0x81>
    2c81:	41 89 c0             	mov    %eax,%r8d
    2c84:	85 c0                	test   %eax,%eax
    2c86:	75 3b                	jne    2cc3 <block_gpu_map_all_chunks_indirect_peer+0xc3>
    2c88:	4c 8b 55 d0          	mov    -0x30(%rbp),%r10
    2c8c:	48 89 d9             	mov    %rbx,%rcx
    2c8f:	4c 89 ee             	mov    %r13,%rsi
    2c92:	4c 89 f7             	mov    %r14,%rdi
    2c95:	4c 89 d2             	mov    %r10,%rdx
    2c98:	e8 83 d8 ff ff       	callq  520 <block_sysmem_mappings_add_gpu_chunk>
    2c9d:	41 89 c0             	mov    %eax,%r8d
    2ca0:	85 c0                	test   %eax,%eax
    2ca2:	75 1f                	jne    2cc3 <block_gpu_map_all_chunks_indirect_peer+0xc3>
    2ca4:	49 83 c7 01          	add    $0x1,%r15
    2ca8:	4c 39 7d c8          	cmp    %r15,-0x38(%rbp)
    2cac:	75 af                	jne    2c5d <block_gpu_map_all_chunks_indirect_peer+0x5d>
    2cae:	45 31 c0             	xor    %r8d,%r8d
    2cb1:	48 83 c4 18          	add    $0x18,%rsp
    2cb5:	44 89 c0             	mov    %r8d,%eax
    2cb8:	5b                   	pop    %rbx
    2cb9:	41 5c                	pop    %r12
    2cbb:	41 5d                	pop    %r13
    2cbd:	41 5e                	pop    %r14
    2cbf:	41 5f                	pop    %r15
    2cc1:	5d                   	pop    %rbp
    2cc2:	c3                   	retq   
    2cc3:	4d 8d 77 ff          	lea    -0x1(%r15),%r14
    2cc7:	4c 8d ab f0 09 00 00 	lea    0x9f0(%rbx),%r13
    2cce:	4d 85 ff             	test   %r15,%r15
    2cd1:	74 de                	je     2cb1 <block_gpu_map_all_chunks_indirect_peer+0xb1>
    2cd3:	49 8b 84 24 a0 00 00 	mov    0xa0(%r12),%rax
    2cda:	00 
    2cdb:	4a 8b 34 f0          	mov    (%rax,%r14,8),%rsi
    2cdf:	48 85 f6             	test   %rsi,%rsi
    2ce2:	74 1f                	je     2d03 <block_gpu_map_all_chunks_indirect_peer+0x103>
    2ce4:	48 8b 7d c0          	mov    -0x40(%rbp),%rdi
    2ce8:	48 89 da             	mov    %rbx,%rdx
    2ceb:	44 89 45 d0          	mov    %r8d,-0x30(%rbp)
    2cef:	e8 00 00 00 00       	callq  2cf4 <block_gpu_map_all_chunks_indirect_peer+0xf4>
    2cf4:	4c 89 ef             	mov    %r13,%rdi
    2cf7:	48 89 c6             	mov    %rax,%rsi
    2cfa:	e8 00 00 00 00       	callq  2cff <block_gpu_map_all_chunks_indirect_peer+0xff>
    2cff:	44 8b 45 d0          	mov    -0x30(%rbp),%r8d
    2d03:	49 83 ee 01          	sub    $0x1,%r14
    2d07:	49 83 fe ff          	cmp    $0xffffffffffffffff,%r14
    2d0b:	75 c6                	jne    2cd3 <block_gpu_map_all_chunks_indirect_peer+0xd3>
    2d0d:	eb a2                	jmp    2cb1 <block_gpu_map_all_chunks_indirect_peer+0xb1>
    2d0f:	90                   	nop

0000000000002d10 <block_gpu_unmap_all_chunks_indirect_peer>:
    2d10:	e8 00 00 00 00       	callq  2d15 <block_gpu_unmap_all_chunks_indirect_peer+0x5>
    2d15:	55                   	push   %rbp
    2d16:	48 89 e5             	mov    %rsp,%rbp
    2d19:	41 57                	push   %r15
    2d1b:	41 56                	push   %r14
    2d1d:	41 55                	push   %r13
    2d1f:	41 54                	push   %r12
    2d21:	53                   	push   %rbx
    2d22:	8b 46 10             	mov    0x10(%rsi),%eax
    2d25:	83 e8 01             	sub    $0x1,%eax
    2d28:	4c 8b b4 c7 48 01 00 	mov    0x148(%rdi,%rax,8),%r14
    2d2f:	00 
    2d30:	4d 85 f6             	test   %r14,%r14
    2d33:	74 59                	je     2d8e <block_gpu_unmap_all_chunks_indirect_peer+0x7e>
    2d35:	49 83 be a0 00 00 00 	cmpq   $0x0,0xa0(%r14)
    2d3c:	00 
    2d3d:	74 4f                	je     2d8e <block_gpu_unmap_all_chunks_indirect_peer+0x7e>
    2d3f:	49 89 f4             	mov    %rsi,%r12
    2d42:	49 89 d5             	mov    %rdx,%r13
    2d45:	e8 46 fb ff ff       	callq  2890 <block_num_gpu_chunks>
    2d4a:	49 89 c7             	mov    %rax,%r15
    2d4d:	48 85 c0             	test   %rax,%rax
    2d50:	74 3c                	je     2d8e <block_gpu_unmap_all_chunks_indirect_peer+0x7e>
    2d52:	31 db                	xor    %ebx,%ebx
    2d54:	49 81 c4 70 04 00 00 	add    $0x470,%r12
    2d5b:	49 8b 86 a0 00 00 00 	mov    0xa0(%r14),%rax
    2d62:	48 8b 34 d8          	mov    (%rax,%rbx,8),%rsi
    2d66:	48 85 f6             	test   %rsi,%rsi
    2d69:	74 1a                	je     2d85 <block_gpu_unmap_all_chunks_indirect_peer+0x75>
    2d6b:	4c 89 e7             	mov    %r12,%rdi
    2d6e:	4c 89 ea             	mov    %r13,%rdx
    2d71:	e8 00 00 00 00       	callq  2d76 <block_gpu_unmap_all_chunks_indirect_peer+0x66>
    2d76:	49 8d bd f0 09 00 00 	lea    0x9f0(%r13),%rdi
    2d7d:	48 89 c6             	mov    %rax,%rsi
    2d80:	e8 00 00 00 00       	callq  2d85 <block_gpu_unmap_all_chunks_indirect_peer+0x75>
    2d85:	48 83 c3 01          	add    $0x1,%rbx
    2d89:	49 39 df             	cmp    %rbx,%r15
    2d8c:	75 cd                	jne    2d5b <block_gpu_unmap_all_chunks_indirect_peer+0x4b>
    2d8e:	5b                   	pop    %rbx
    2d8f:	41 5c                	pop    %r12
    2d91:	41 5d                	pop    %r13
    2d93:	41 5e                	pop    %r14
    2d95:	41 5f                	pop    %r15
    2d97:	5d                   	pop    %rbp
    2d98:	c3                   	retq   
    2d99:	0f 1f 80 00 00 00 00 	nopl   0x0(%rax)

0000000000002da0 <block_phys_page_chunk.isra.0>:
    2da0:	e8 00 00 00 00       	callq  2da5 <block_phys_page_chunk.isra.0+0x5>
    2da5:	55                   	push   %rbp
    2da6:	48 89 e5             	mov    %rsp,%rbp
    2da9:	41 57                	push   %r15
    2dab:	41 56                	push   %r14
    2dad:	49 89 fe             	mov    %rdi,%r14
    2db0:	4c 8d 45 cc          	lea    -0x34(%rbp),%r8
    2db4:	41 55                	push   %r13
    2db6:	44 0f b7 ea          	movzwl %dx,%r13d
    2dba:	41 54                	push   %r12
    2dbc:	49 89 cc             	mov    %rcx,%r12
    2dbf:	44 89 e9             	mov    %r13d,%ecx
    2dc2:	53                   	push   %rbx
    2dc3:	48 83 ec 10          	sub    $0x10,%rsp
    2dc7:	49 8b 56 28          	mov    0x28(%r14),%rdx
    2dcb:	65 48 8b 04 25 28 00 	mov    %gs:0x28,%rax
    2dd2:	00 00 
    2dd4:	48 89 45 d0          	mov    %rax,-0x30(%rbp)
    2dd8:	31 c0                	xor    %eax,%eax
    2dda:	8d 46 ff             	lea    -0x1(%rsi),%eax
    2ddd:	48 8b 12             	mov    (%rdx),%rdx
    2de0:	4c 8b bc c7 48 01 00 	mov    0x148(%rdi,%rax,8),%r15
    2de7:	00 
    2de8:	48 8b 7f 30          	mov    0x30(%rdi),%rdi
    2dec:	48 8b 54 c2 08       	mov    0x8(%rdx,%rax,8),%rdx
    2df1:	49 8b 46 38          	mov    0x38(%r14),%rax
    2df5:	48 8d 70 01          	lea    0x1(%rax),%rsi
    2df9:	48 29 fe             	sub    %rdi,%rsi
    2dfc:	e8 00 00 00 00       	callq  2e01 <block_phys_page_chunk.isra.0+0x61>
    2e01:	49 8b 56 30          	mov    0x30(%r14),%rdx
    2e05:	8b 5d cc             	mov    -0x34(%rbp),%ebx
    2e08:	49 89 c0             	mov    %rax,%r8
    2e0b:	49 8b 87 a0 00 00 00 	mov    0xa0(%r15),%rax
    2e12:	48 f7 db             	neg    %rbx
    2e15:	4e 8b 04 c0          	mov    (%rax,%r8,8),%r8
    2e19:	41 0f b7 c5          	movzwl %r13w,%eax
    2e1d:	48 c1 e0 0c          	shl    $0xc,%rax
    2e21:	48 01 d0             	add    %rdx,%rax
    2e24:	48 21 d8             	and    %rbx,%rax
    2e27:	48 29 d0             	sub    %rdx,%rax
    2e2a:	48 c1 e8 0c          	shr    $0xc,%rax
    2e2e:	0f b7 c0             	movzwl %ax,%eax
    2e31:	41 29 c5             	sub    %eax,%r13d
    2e34:	4d 63 ed             	movslq %r13d,%r13
    2e37:	49 c1 e5 0c          	shl    $0xc,%r13
    2e3b:	4d 89 2c 24          	mov    %r13,(%r12)
    2e3f:	48 8b 45 d0          	mov    -0x30(%rbp),%rax
    2e43:	65 48 33 04 25 28 00 	xor    %gs:0x28,%rax
    2e4a:	00 00 
    2e4c:	75 12                	jne    2e60 <block_phys_page_chunk.isra.0+0xc0>
    2e4e:	48 83 c4 10          	add    $0x10,%rsp
    2e52:	4c 89 c0             	mov    %r8,%rax
    2e55:	5b                   	pop    %rbx
    2e56:	41 5c                	pop    %r12
    2e58:	41 5d                	pop    %r13
    2e5a:	41 5e                	pop    %r14
    2e5c:	41 5f                	pop    %r15
    2e5e:	5d                   	pop    %rbp
    2e5f:	c3                   	retq   
    2e60:	e8 00 00 00 00       	callq  2e65 <block_phys_page_chunk.isra.0+0xc5>
    2e65:	66 66 2e 0f 1f 84 00 	data16 nopw %cs:0x0(%rax,%rax,1)
    2e6c:	00 00 00 00 

0000000000002e70 <block_phys_page_address.isra.0>:
    2e70:	e8 00 00 00 00       	callq  2e75 <block_phys_page_address.isra.0+0x5>
    2e75:	55                   	push   %rbp
    2e76:	48 89 e5             	mov    %rsp,%rbp
    2e79:	41 55                	push   %r13
    2e7b:	49 89 cd             	mov    %rcx,%r13
    2e7e:	41 54                	push   %r12
    2e80:	49 89 fc             	mov    %rdi,%r12
    2e83:	53                   	push   %rbx
    2e84:	48 83 ec 10          	sub    $0x10,%rsp
    2e88:	65 48 8b 04 25 28 00 	mov    %gs:0x28,%rax
    2e8f:	00 00 
    2e91:	48 89 44 24 08       	mov    %rax,0x8(%rsp)
    2e96:	31 c0                	xor    %eax,%eax
    2e98:	85 f6                	test   %esi,%esi
    2e9a:	75 69                	jne    2f05 <block_phys_page_address.isra.0+0x95>
    2e9c:	8b 41 10             	mov    0x10(%rcx),%eax
    2e9f:	8b 0d 00 00 00 00    	mov    0x0(%rip),%ecx        # 2ea5 <block_phys_page_address.isra.0+0x35>
    2ea5:	83 e8 01             	sub    $0x1,%eax
    2ea8:	48 8b 84 c7 48 01 00 	mov    0x148(%rdi,%rax,8),%rax
    2eaf:	00 
    2eb0:	85 c9                	test   %ecx,%ecx
    2eb2:	75 2e                	jne    2ee2 <block_phys_page_address.isra.0+0x72>
    2eb4:	48 8b 80 88 00 00 00 	mov    0x88(%rax),%rax
    2ebb:	0f b7 d2             	movzwl %dx,%edx
    2ebe:	48 8b 04 d0          	mov    (%rax,%rdx,8),%rax
    2ec2:	ba 09 00 00 00       	mov    $0x9,%edx
    2ec7:	48 8b 5c 24 08       	mov    0x8(%rsp),%rbx
    2ecc:	65 48 33 1c 25 28 00 	xor    %gs:0x28,%rbx
    2ed3:	00 00 
    2ed5:	75 77                	jne    2f4e <block_phys_page_address.isra.0+0xde>
    2ed7:	48 83 c4 10          	add    $0x10,%rsp
    2edb:	5b                   	pop    %rbx
    2edc:	41 5c                	pop    %r12
    2ede:	41 5d                	pop    %r13
    2ee0:	5d                   	pop    %rbp
    2ee1:	c3                   	retq   
    2ee2:	48 8b 4f 38          	mov    0x38(%rdi),%rcx
    2ee6:	48 2b 4f 30          	sub    0x30(%rdi),%rcx
    2eea:	48 81 f9 ff ff 1f 00 	cmp    $0x1fffff,%rcx
    2ef1:	75 c1                	jne    2eb4 <block_phys_page_address.isra.0+0x44>
    2ef3:	80 b8 90 00 00 00 00 	cmpb   $0x0,0x90(%rax)
    2efa:	74 b8                	je     2eb4 <block_phys_page_address.isra.0+0x44>
    2efc:	48 8b 80 98 00 00 00 	mov    0x98(%rax),%rax
    2f03:	eb bd                	jmp    2ec2 <block_phys_page_address.isra.0+0x52>
    2f05:	48 89 e1             	mov    %rsp,%rcx
    2f08:	89 f3                	mov    %esi,%ebx
    2f0a:	e8 91 fe ff ff       	callq  2da0 <block_phys_page_chunk.isra.0>
    2f0f:	48 89 c6             	mov    %rax,%rsi
    2f12:	41 39 5d 10          	cmp    %ebx,0x10(%r13)
    2f16:	75 0e                	jne    2f26 <block_phys_page_address.isra.0+0xb6>
    2f18:	48 8b 04 24          	mov    (%rsp),%rax
    2f1c:	ba 0a 00 00 00       	mov    $0xa,%edx
    2f21:	48 03 06             	add    (%rsi),%rax
    2f24:	eb a1                	jmp    2ec7 <block_phys_page_address.isra.0+0x57>
    2f26:	49 8b 44 24 28       	mov    0x28(%r12),%rax
    2f2b:	8d 53 ff             	lea    -0x1(%rbx),%edx
    2f2e:	48 8b 00             	mov    (%rax),%rax
    2f31:	48 8b 7c d0 08       	mov    0x8(%rax,%rdx,8),%rdi
    2f36:	4c 89 ea             	mov    %r13,%rdx
    2f39:	48 81 c7 70 04 00 00 	add    $0x470,%rdi
    2f40:	e8 00 00 00 00       	callq  2f45 <block_phys_page_address.isra.0+0xd5>
    2f45:	48 03 04 24          	add    (%rsp),%rax
    2f49:	e9 79 ff ff ff       	jmpq   2ec7 <block_phys_page_address.isra.0+0x57>
    2f4e:	e8 00 00 00 00       	callq  2f53 <block_phys_page_address.isra.0+0xe3>
    2f53:	66 66 2e 0f 1f 84 00 	data16 nopw %cs:0x0(%rax,%rax,1)
    2f5a:	00 00 00 00 
    2f5e:	66 90                	xchg   %ax,%ax

0000000000002f60 <block_gpu_map_to_2m>:
    2f60:	e8 00 00 00 00       	callq  2f65 <block_gpu_map_to_2m+0x5>
    2f65:	55                   	push   %rbp
    2f66:	48 89 e5             	mov    %rsp,%rbp
    2f69:	41 57                	push   %r15
    2f6b:	41 56                	push   %r14
    2f6d:	4c 8d b6 30 03 00 00 	lea    0x330(%rsi),%r14
    2f74:	41 55                	push   %r13
    2f76:	4c 8d ae 90 03 00 00 	lea    0x390(%rsi),%r13
    2f7d:	41 54                	push   %r12
    2f7f:	49 89 fc             	mov    %rdi,%r12
    2f82:	53                   	push   %rbx
    2f83:	48 89 d3             	mov    %rdx,%rbx
    2f86:	48 83 ec 30          	sub    $0x30,%rsp
    2f8a:	8b 42 10             	mov    0x10(%rdx),%eax
    2f8d:	48 8b 57 28          	mov    0x28(%rdi),%rdx
    2f91:	4c 89 4c 24 20       	mov    %r9,0x20(%rsp)
    2f96:	83 e8 01             	sub    $0x1,%eax
    2f99:	48 8b 12             	mov    (%rdx),%rdx
    2f9c:	89 4c 24 2c          	mov    %ecx,0x2c(%rsp)
    2fa0:	4c 8b 8c c7 48 01 00 	mov    0x148(%rdi,%rax,8),%r9
    2fa7:	00 
    2fa8:	44 89 44 24 28       	mov    %r8d,0x28(%rsp)
    2fad:	4c 8b bc c2 40 0b 00 	mov    0xb40(%rdx,%rax,8),%r15
    2fb4:	00 
    2fb5:	41 80 b9 f4 00 00 00 	cmpb   $0x0,0xf4(%r9)
    2fbc:	00 
    2fbd:	0f 84 53 01 00 00    	je     3116 <block_gpu_map_to_2m+0x1b6>
    2fc3:	48 8b 7c 24 20       	mov    0x20(%rsp),%rdi
    2fc8:	4c 89 f6             	mov    %r14,%rsi
    2fcb:	e8 00 00 00 00       	callq  2fd0 <block_gpu_map_to_2m+0x70>
    2fd0:	49 8d 7f 28          	lea    0x28(%r15),%rdi
    2fd4:	4c 89 ee             	mov    %r13,%rsi
    2fd7:	e8 00 00 00 00       	callq  2fdc <block_gpu_map_to_2m+0x7c>
    2fdc:	49 8b 54 24 28       	mov    0x28(%r12),%rdx
    2fe1:	8b 43 10             	mov    0x10(%rbx),%eax
    2fe4:	48 8b 12             	mov    (%rdx),%rdx
    2fe7:	83 e8 01             	sub    $0x1,%eax
    2fea:	49 8b b4 c4 48 01 00 	mov    0x148(%r12,%rax,8),%rsi
    2ff1:	00 
    2ff2:	4c 8b bc c2 40 0b 00 	mov    0xb40(%rdx,%rax,8),%r15
    2ff9:	00 
    2ffa:	31 d2                	xor    %edx,%edx
    2ffc:	48 81 c6 a8 00 00 00 	add    $0xa8,%rsi
    3003:	49 8d 7f 28          	lea    0x28(%r15),%rdi
    3007:	e8 f4 cf ff ff       	callq  0 <uvm_page_table_range_entry_address>
    300c:	bf 00 00 20 00       	mov    $0x200000,%edi
    3011:	48 89 44 24 18       	mov    %rax,0x18(%rsp)
    3016:	49 8b 47 58          	mov    0x58(%r15),%rax
    301a:	48 89 54 24 10       	mov    %rdx,0x10(%rsp)
    301f:	48 8b 50 30          	mov    0x30(%rax),%rdx
    3023:	48 8b 40 60          	mov    0x60(%rax),%rax
    3027:	48 89 54 24 08       	mov    %rdx,0x8(%rsp)
    302c:	e8 00 00 00 00       	callq  3031 <block_gpu_map_to_2m+0xd1>
    3031:	48 8b 54 24 08       	mov    0x8(%rsp),%rdx
    3036:	89 c7                	mov    %eax,%edi
    3038:	e8 00 00 00 00       	callq  303d <block_gpu_map_to_2m+0xdd>
    303d:	45 31 c9             	xor    %r9d,%r9d
    3040:	49 89 c0             	mov    %rax,%r8
    3043:	8b 44 24 2c          	mov    0x2c(%rsp),%eax
    3047:	3b 43 10             	cmp    0x10(%rbx),%eax
    304a:	74 17                	je     3063 <block_gpu_map_to_2m+0x103>
    304c:	85 c0                	test   %eax,%eax
    304e:	0f 84 f4 00 00 00    	je     3148 <block_gpu_map_to_2m+0x1e8>
    3054:	8b 15 00 00 00 00    	mov    0x0(%rip),%edx        # 305a <block_gpu_map_to_2m+0xfa>
    305a:	45 31 c9             	xor    %r9d,%r9d
    305d:	85 d2                	test   %edx,%edx
    305f:	41 0f 94 c1          	sete   %r9b
    3063:	8b 74 24 2c          	mov    0x2c(%rsp),%esi
    3067:	48 89 d9             	mov    %rbx,%rcx
    306a:	31 d2                	xor    %edx,%edx
    306c:	4c 89 e7             	mov    %r12,%rdi
    306f:	4c 89 44 24 08       	mov    %r8,0x8(%rsp)
    3074:	44 89 4c 24 04       	mov    %r9d,0x4(%rsp)
    3079:	e8 f2 fd ff ff       	callq  2e70 <block_phys_page_address.isra.0>
    307e:	44 8b 4c 24 04       	mov    0x4(%rsp),%r9d
    3083:	48 89 c6             	mov    %rax,%rsi
    3086:	49 8b 47 58          	mov    0x58(%r15),%rax
    308a:	48 89 d7             	mov    %rdx,%rdi
    308d:	8b 54 24 28          	mov    0x28(%rsp),%edx
    3091:	44 89 c9             	mov    %r9d,%ecx
    3094:	4c 8b 18             	mov    (%rax),%r11
    3097:	e8 00 00 00 00       	callq  309c <block_gpu_map_to_2m+0x13c>
    309c:	48 8b 54 24 10       	mov    0x10(%rsp),%rdx
    30a1:	4c 8b 44 24 08       	mov    0x8(%rsp),%r8
    30a6:	4c 89 f7             	mov    %r14,%rdi
    30a9:	48 8b 74 24 18       	mov    0x18(%rsp),%rsi
    30ae:	48 89 c1             	mov    %rax,%rcx
    30b1:	e8 00 00 00 00       	callq  30b6 <block_gpu_map_to_2m+0x156>
    30b6:	4d 85 ed             	test   %r13,%r13
    30b9:	74 1a                	je     30d5 <block_gpu_map_to_2m+0x175>
    30bb:	49 8b 74 24 30       	mov    0x30(%r12),%rsi
    30c0:	45 31 c0             	xor    %r8d,%r8d
    30c3:	b9 00 00 20 00       	mov    $0x200000,%ecx
    30c8:	4c 89 ef             	mov    %r13,%rdi
    30cb:	ba 00 00 20 00       	mov    $0x200000,%edx
    30d0:	e8 00 00 00 00       	callq  30d5 <block_gpu_map_to_2m+0x175>
    30d5:	4c 89 f7             	mov    %r14,%rdi
    30d8:	e8 00 00 00 00       	callq  30dd <block_gpu_map_to_2m+0x17d>
    30dd:	8b 45 10             	mov    0x10(%rbp),%eax
    30e0:	85 c0                	test   %eax,%eax
    30e2:	74 13                	je     30f7 <block_gpu_map_to_2m+0x197>
    30e4:	8b 44 24 2c          	mov    0x2c(%rsp),%eax
    30e8:	39 43 10             	cmp    %eax,0x10(%rbx)
    30eb:	b8 02 00 00 00       	mov    $0x2,%eax
    30f0:	0f 44 45 10          	cmove  0x10(%rbp),%eax
    30f4:	89 45 10             	mov    %eax,0x10(%rbp)
    30f7:	8b 55 10             	mov    0x10(%rbp),%edx
    30fa:	48 8b 74 24 20       	mov    0x20(%rsp),%rsi
    30ff:	4c 89 ef             	mov    %r13,%rdi
    3102:	e8 00 00 00 00       	callq  3107 <block_gpu_map_to_2m+0x1a7>
    3107:	48 83 c4 30          	add    $0x30,%rsp
    310b:	5b                   	pop    %rbx
    310c:	41 5c                	pop    %r12
    310e:	41 5d                	pop    %r13
    3110:	41 5e                	pop    %r14
    3112:	41 5f                	pop    %r15
    3114:	5d                   	pop    %rbp
    3115:	c3                   	retq   
    3116:	48 8b 4c 24 20       	mov    0x20(%rsp),%rcx
    311b:	45 31 c0             	xor    %r8d,%r8d
    311e:	48 89 da             	mov    %rbx,%rdx
    3121:	4c 89 4c 24 18       	mov    %r9,0x18(%rsp)
    3126:	e8 05 e2 ff ff       	callq  1330 <block_gpu_pte_merge_2m>
    312b:	4c 8b 4c 24 18       	mov    0x18(%rsp),%r9
    3130:	41 c6 81 f4 00 00 00 	movb   $0x1,0xf4(%r9)
    3137:	01 
    3138:	49 c7 81 f8 00 00 00 	movq   $0x0,0xf8(%r9)
    313f:	00 00 00 00 
    3143:	e9 7b fe ff ff       	jmpq   2fc3 <block_gpu_map_to_2m+0x63>
    3148:	8b 0d 00 00 00 00    	mov    0x0(%rip),%ecx        # 314e <block_gpu_map_to_2m+0x1ee>
    314e:	45 31 c9             	xor    %r9d,%r9d
    3151:	85 c9                	test   %ecx,%ecx
    3153:	41 0f 94 c1          	sete   %r9b
    3157:	e9 07 ff ff ff       	jmpq   3063 <block_gpu_map_to_2m+0x103>
    315c:	0f 1f 40 00          	nopl   0x0(%rax)

0000000000003160 <block_phys_contig_region>:
    3160:	e8 00 00 00 00       	callq  3165 <block_phys_contig_region+0x5>
    3165:	55                   	push   %rbp
    3166:	48 89 e5             	mov    %rsp,%rbp
    3169:	41 54                	push   %r12
    316b:	53                   	push   %rbx
    316c:	48 83 ec 10          	sub    $0x10,%rsp
    3170:	65 48 8b 04 25 28 00 	mov    %gs:0x28,%rax
    3177:	00 00 
    3179:	48 89 45 e8          	mov    %rax,-0x18(%rbp)
    317d:	31 c0                	xor    %eax,%eax
    317f:	85 d2                	test   %edx,%edx
    3181:	75 25                	jne    31a8 <block_phys_contig_region+0x48>
    3183:	8d 46 01             	lea    0x1(%rsi),%eax
    3186:	89 c1                	mov    %eax,%ecx
    3188:	0f b7 c6             	movzwl %si,%eax
    318b:	c1 e1 10             	shl    $0x10,%ecx
    318e:	09 c8                	or     %ecx,%eax
    3190:	48 8b 5d e8          	mov    -0x18(%rbp),%rbx
    3194:	65 48 33 1c 25 28 00 	xor    %gs:0x28,%rbx
    319b:	00 00 
    319d:	75 71                	jne    3210 <block_phys_contig_region+0xb0>
    319f:	48 83 c4 10          	add    $0x10,%rsp
    31a3:	5b                   	pop    %rbx
    31a4:	41 5c                	pop    %r12
    31a6:	5d                   	pop    %rbp
    31a7:	c3                   	retq   
    31a8:	49 89 fc             	mov    %rdi,%r12
    31ab:	83 ea 01             	sub    $0x1,%edx
    31ae:	48 8b 7f 30          	mov    0x30(%rdi),%rdi
    31b2:	0f b7 ce             	movzwl %si,%ecx
    31b5:	49 8b 44 24 28       	mov    0x28(%r12),%rax
    31ba:	89 f3                	mov    %esi,%ebx
    31bc:	4c 8d 45 e4          	lea    -0x1c(%rbp),%r8
    31c0:	48 8b 00             	mov    (%rax),%rax
    31c3:	48 8b 54 d0 08       	mov    0x8(%rax,%rdx,8),%rdx
    31c8:	49 8b 44 24 38       	mov    0x38(%r12),%rax
    31cd:	48 8d 70 01          	lea    0x1(%rax),%rsi
    31d1:	48 29 fe             	sub    %rdi,%rsi
    31d4:	e8 00 00 00 00       	callq  31d9 <block_phys_contig_region+0x79>
    31d9:	8b 55 e4             	mov    -0x1c(%rbp),%edx
    31dc:	49 8b 4c 24 30       	mov    0x30(%r12),%rcx
    31e1:	0f b7 c3             	movzwl %bx,%eax
    31e4:	48 c1 e0 0c          	shl    $0xc,%rax
    31e8:	48 89 d6             	mov    %rdx,%rsi
    31eb:	48 01 c8             	add    %rcx,%rax
    31ee:	48 f7 da             	neg    %rdx
    31f1:	48 21 d0             	and    %rdx,%rax
    31f4:	c1 ee 0c             	shr    $0xc,%esi
    31f7:	48 29 c8             	sub    %rcx,%rax
    31fa:	48 c1 e8 0c          	shr    $0xc,%rax
    31fe:	48 89 c2             	mov    %rax,%rdx
    3201:	8d 04 30             	lea    (%rax,%rsi,1),%eax
    3204:	89 c6                	mov    %eax,%esi
    3206:	0f b7 c2             	movzwl %dx,%eax
    3209:	c1 e6 10             	shl    $0x10,%esi
    320c:	09 f0                	or     %esi,%eax
    320e:	eb 80                	jmp    3190 <block_phys_contig_region+0x30>
    3210:	e8 00 00 00 00       	callq  3215 <block_phys_contig_region+0xb5>
    3215:	66 66 2e 0f 1f 84 00 	data16 nopw %cs:0x0(%rax,%rax,1)
    321c:	00 00 00 00 

0000000000003220 <block_gpu_pte_write_4k>:
    3220:	e8 00 00 00 00       	callq  3225 <block_gpu_pte_write_4k+0x5>
    3225:	55                   	push   %rbp
    3226:	48 89 e5             	mov    %rsp,%rbp
    3229:	41 57                	push   %r15
    322b:	41 56                	push   %r14
    322d:	4d 89 c6             	mov    %r8,%r14
    3230:	41 55                	push   %r13
    3232:	41 54                	push   %r12
    3234:	49 89 f4             	mov    %rsi,%r12
    3237:	53                   	push   %rbx
    3238:	48 89 fb             	mov    %rdi,%rbx
    323b:	48 83 ec 68          	sub    $0x68,%rsp
    323f:	8b 46 10             	mov    0x10(%rsi),%eax
    3242:	89 54 24 64          	mov    %edx,0x64(%rsp)
    3246:	48 8b 57 28          	mov    0x28(%rdi),%rdx
    324a:	83 e8 01             	sub    $0x1,%eax
    324d:	89 4c 24 60          	mov    %ecx,0x60(%rsp)
    3251:	48 8b 12             	mov    (%rdx),%rdx
    3254:	48 8b 8c c7 48 01 00 	mov    0x148(%rdi,%rax,8),%rcx
    325b:	00 
    325c:	4c 89 4c 24 58       	mov    %r9,0x58(%rsp)
    3261:	bf 00 10 00 00       	mov    $0x1000,%edi
    3266:	4c 8b ac c2 40 0b 00 	mov    0xb40(%rdx,%rax,8),%r13
    326d:	00 
    326e:	48 89 4c 24 50       	mov    %rcx,0x50(%rsp)
    3273:	49 8b 45 58          	mov    0x58(%r13),%rax
    3277:	4c 8b 78 30          	mov    0x30(%rax),%r15
    327b:	48 8b 40 60          	mov    0x60(%rax),%rax
    327f:	e8 00 00 00 00       	callq  3284 <block_gpu_pte_write_4k+0x64>
    3284:	89 c7                	mov    %eax,%edi
    3286:	e8 00 00 00 00       	callq  328b <block_gpu_pte_write_4k+0x6b>
    328b:	31 c9                	xor    %ecx,%ecx
    328d:	49 89 c7             	mov    %rax,%r15
    3290:	8b 44 24 64          	mov    0x64(%rsp),%eax
    3294:	41 39 44 24 10       	cmp    %eax,0x10(%r12)
    3299:	74 13                	je     32ae <block_gpu_pte_write_4k+0x8e>
    329b:	85 c0                	test   %eax,%eax
    329d:	0f 84 d3 01 00 00    	je     3476 <block_gpu_pte_write_4k+0x256>
    32a3:	8b 35 00 00 00 00    	mov    0x0(%rip),%esi        # 32a9 <block_gpu_pte_write_4k+0x89>
    32a9:	85 f6                	test   %esi,%esi
    32ab:	0f 94 c1             	sete   %cl
    32ae:	48 8b 43 38          	mov    0x38(%rbx),%rax
    32b2:	45 31 c9             	xor    %r9d,%r9d
    32b5:	48 8d 70 01          	lea    0x1(%rax),%rsi
    32b9:	48 2b 73 30          	sub    0x30(%rbx),%rsi
    32bd:	48 c1 ee 0c          	shr    $0xc,%rsi
    32c1:	4d 85 f6             	test   %r14,%r14
    32c4:	74 29                	je     32ef <block_gpu_pte_write_4k+0xcf>
    32c6:	0f b7 f6             	movzwl %si,%esi
    32c9:	31 d2                	xor    %edx,%edx
    32cb:	4c 89 f7             	mov    %r14,%rdi
    32ce:	88 4c 24 48          	mov    %cl,0x48(%rsp)
    32d2:	e8 00 00 00 00       	callq  32d7 <block_gpu_pte_write_4k+0xb7>
    32d7:	0f b6 4c 24 48       	movzbl 0x48(%rsp),%ecx
    32dc:	41 89 c1             	mov    %eax,%r9d
    32df:	48 8b 43 38          	mov    0x38(%rbx),%rax
    32e3:	48 8d 70 01          	lea    0x1(%rax),%rsi
    32e7:	48 2b 73 30          	sub    0x30(%rbx),%rsi
    32eb:	48 c1 ee 0c          	shr    $0xc,%rsi
    32ef:	66 41 39 f1          	cmp    %si,%r9w
    32f3:	75 0f                	jne    3304 <block_gpu_pte_write_4k+0xe4>
    32f5:	48 83 c4 68          	add    $0x68,%rsp
    32f9:	5b                   	pop    %rbx
    32fa:	41 5c                	pop    %r12
    32fc:	41 5d                	pop    %r13
    32fe:	41 5e                	pop    %r14
    3300:	41 5f                	pop    %r15
    3302:	5d                   	pop    %rbp
    3303:	c3                   	retq   
    3304:	49 8d 45 28          	lea    0x28(%r13),%rax
    3308:	31 d2                	xor    %edx,%edx
    330a:	4c 89 24 24          	mov    %r12,(%rsp)
    330e:	45 89 cc             	mov    %r9d,%r12d
    3311:	48 89 44 24 20       	mov    %rax,0x20(%rsp)
    3316:	48 8b 44 24 50       	mov    0x50(%rsp),%rax
    331b:	44 89 7c 24 28       	mov    %r15d,0x28(%rsp)
    3320:	48 05 d8 00 00 00    	add    $0xd8,%rax
    3326:	66 89 54 24 2e       	mov    %dx,0x2e(%rsp)
    332b:	48 89 44 24 18       	mov    %rax,0x18(%rsp)
    3330:	0f b6 c1             	movzbl %cl,%eax
    3333:	31 c9                	xor    %ecx,%ecx
    3335:	89 44 24 14          	mov    %eax,0x14(%rsp)
    3339:	c7 44 24 38 00 00 00 	movl   $0x0,0x38(%rsp)
    3340:	00 
    3341:	48 c7 44 24 30 00 00 	movq   $0x0,0x30(%rsp)
    3348:	00 00 
    334a:	66 89 4c 24 3c       	mov    %cx,0x3c(%rsp)
    334f:	83 7c 24 60 01       	cmpl   $0x1,0x60(%rsp)
    3354:	45 0f b7 cc          	movzwl %r12w,%r9d
    3358:	76 0c                	jbe    3366 <block_gpu_pte_write_4k+0x146>
    335a:	8b 44 24 64          	mov    0x64(%rsp),%eax
    335e:	85 c0                	test   %eax,%eax
    3360:	0f 84 20 01 00 00    	je     3486 <block_gpu_pte_write_4k+0x266>
    3366:	45 0f b7 fc          	movzwl %r12w,%r15d
    336a:	66 44 3b 64 24 3c    	cmp    0x3c(%rsp),%r12w
    3370:	0f 83 3e 01 00 00    	jae    34b4 <block_gpu_pte_write_4k+0x294>
    3376:	0f b7 44 24 2e       	movzwl 0x2e(%rsp),%eax
    337b:	45 89 f8             	mov    %r15d,%r8d
    337e:	48 8b 74 24 18       	mov    0x18(%rsp),%rsi
    3383:	4c 89 ca             	mov    %r9,%rdx
    3386:	48 8b 7c 24 20       	mov    0x20(%rsp),%rdi
    338b:	4c 89 4c 24 08       	mov    %r9,0x8(%rsp)
    3390:	41 29 c0             	sub    %eax,%r8d
    3393:	4d 63 c0             	movslq %r8d,%r8
    3396:	49 c1 e0 0c          	shl    $0xc,%r8
    339a:	4c 03 44 24 30       	add    0x30(%rsp),%r8
    339f:	4c 89 44 24 40       	mov    %r8,0x40(%rsp)
    33a4:	e8 57 cc ff ff       	callq  0 <uvm_page_table_range_entry_address>
    33a9:	4c 8b 44 24 40       	mov    0x40(%rsp),%r8
    33ae:	8b 4c 24 14          	mov    0x14(%rsp),%ecx
    33b2:	48 89 44 24 48       	mov    %rax,0x48(%rsp)
    33b7:	49 8b 45 58          	mov    0x58(%r13),%rax
    33bb:	4c 89 c6             	mov    %r8,%rsi
    33be:	48 89 54 24 50       	mov    %rdx,0x50(%rsp)
    33c3:	8b 7c 24 38          	mov    0x38(%rsp),%edi
    33c7:	8b 54 24 60          	mov    0x60(%rsp),%edx
    33cb:	48 8b 00             	mov    (%rax),%rax
    33ce:	e8 00 00 00 00       	callq  33d3 <block_gpu_pte_write_4k+0x1b3>
    33d3:	4c 8b 5c 24 48       	mov    0x48(%rsp),%r11
    33d8:	48 8b 54 24 50       	mov    0x50(%rsp),%rdx
    33dd:	44 8b 44 24 28       	mov    0x28(%rsp),%r8d
    33e2:	48 8b 7c 24 58       	mov    0x58(%rsp),%rdi
    33e7:	48 89 c1             	mov    %rax,%rcx
    33ea:	4c 89 de             	mov    %r11,%rsi
    33ed:	e8 00 00 00 00       	callq  33f2 <block_gpu_pte_write_4k+0x1d2>
    33f2:	48 83 7d 10 00       	cmpq   $0x0,0x10(%rbp)
    33f7:	74 26                	je     341f <block_gpu_pte_write_4k+0x1ff>
    33f9:	48 8b 73 30          	mov    0x30(%rbx),%rsi
    33fd:	48 8b 7d 10          	mov    0x10(%rbp),%rdi
    3401:	45 31 c0             	xor    %r8d,%r8d
    3404:	b9 00 10 00 00       	mov    $0x1000,%ecx
    3409:	4c 8b 4c 24 08       	mov    0x8(%rsp),%r9
    340e:	ba 00 10 00 00       	mov    $0x1000,%edx
    3413:	49 c1 e1 0c          	shl    $0xc,%r9
    3417:	4c 01 ce             	add    %r9,%rsi
    341a:	e8 00 00 00 00       	callq  341f <block_gpu_pte_write_4k+0x1ff>
    341f:	48 8b 43 38          	mov    0x38(%rbx),%rax
    3423:	41 83 c4 01          	add    $0x1,%r12d
    3427:	48 8d 70 01          	lea    0x1(%rax),%rsi
    342b:	48 2b 73 30          	sub    0x30(%rbx),%rsi
    342f:	48 c1 ee 0c          	shr    $0xc,%rsi
    3433:	4d 85 f6             	test   %r14,%r14
    3436:	74 25                	je     345d <block_gpu_pte_write_4k+0x23d>
    3438:	41 8d 57 01          	lea    0x1(%r15),%edx
    343c:	0f b7 f6             	movzwl %si,%esi
    343f:	4c 89 f7             	mov    %r14,%rdi
    3442:	48 63 d2             	movslq %edx,%rdx
    3445:	e8 00 00 00 00       	callq  344a <block_gpu_pte_write_4k+0x22a>
    344a:	41 89 c4             	mov    %eax,%r12d
    344d:	48 8b 43 38          	mov    0x38(%rbx),%rax
    3451:	48 8d 70 01          	lea    0x1(%rax),%rsi
    3455:	48 2b 73 30          	sub    0x30(%rbx),%rsi
    3459:	48 c1 ee 0c          	shr    $0xc,%rsi
    345d:	66 41 39 f4          	cmp    %si,%r12w
    3461:	0f 85 e8 fe ff ff    	jne    334f <block_gpu_pte_write_4k+0x12f>
    3467:	48 83 c4 68          	add    $0x68,%rsp
    346b:	5b                   	pop    %rbx
    346c:	41 5c                	pop    %r12
    346e:	41 5d                	pop    %r13
    3470:	41 5e                	pop    %r14
    3472:	41 5f                	pop    %r15
    3474:	5d                   	pop    %rbp
    3475:	c3                   	retq   
    3476:	8b 3d 00 00 00 00    	mov    0x0(%rip),%edi        # 347c <block_gpu_pte_write_4k+0x25c>
    347c:	85 ff                	test   %edi,%edi
    347e:	0f 94 c1             	sete   %cl
    3481:	e9 28 fe ff ff       	jmpq   32ae <block_gpu_pte_write_4k+0x8e>
    3486:	48 8b 83 98 00 00 00 	mov    0x98(%rbx),%rax
    348d:	4a 8b 04 c8          	mov    (%rax,%r9,8),%rax
    3491:	48 8b 50 08          	mov    0x8(%rax),%rdx
    3495:	48 8d 4a ff          	lea    -0x1(%rdx),%rcx
    3499:	83 e2 01             	and    $0x1,%edx
    349c:	48 0f 45 c1          	cmovne %rcx,%rax
    34a0:	f0 80 08 08          	lock orb $0x8,(%rax)
    34a4:	45 0f b7 fc          	movzwl %r12w,%r15d
    34a8:	66 44 3b 64 24 3c    	cmp    0x3c(%rsp),%r12w
    34ae:	0f 82 c2 fe ff ff    	jb     3376 <block_gpu_pte_write_4k+0x156>
    34b4:	8b 54 24 64          	mov    0x64(%rsp),%edx
    34b8:	44 89 fe             	mov    %r15d,%esi
    34bb:	48 89 df             	mov    %rbx,%rdi
    34be:	4c 89 4c 24 50       	mov    %r9,0x50(%rsp)
    34c3:	e8 98 fc ff ff       	callq  3160 <block_phys_contig_region>
    34c8:	48 8b 0c 24          	mov    (%rsp),%rcx
    34cc:	8b 74 24 64          	mov    0x64(%rsp),%esi
    34d0:	48 89 df             	mov    %rbx,%rdi
    34d3:	66 89 44 24 2e       	mov    %ax,0x2e(%rsp)
    34d8:	89 c2                	mov    %eax,%edx
    34da:	c1 e8 10             	shr    $0x10,%eax
    34dd:	89 44 24 3c          	mov    %eax,0x3c(%rsp)
    34e1:	e8 8a f9 ff ff       	callq  2e70 <block_phys_page_address.isra.0>
    34e6:	4c 8b 4c 24 50       	mov    0x50(%rsp),%r9
    34eb:	48 89 44 24 30       	mov    %rax,0x30(%rsp)
    34f0:	89 54 24 38          	mov    %edx,0x38(%rsp)
    34f4:	e9 7d fe ff ff       	jmpq   3376 <block_gpu_pte_write_4k+0x156>
    34f9:	0f 1f 80 00 00 00 00 	nopl   0x0(%rax)

0000000000003500 <block_gpu_pte_write_big>:
    3500:	e8 00 00 00 00       	callq  3505 <block_gpu_pte_write_big+0x5>
    3505:	55                   	push   %rbp
    3506:	48 89 e5             	mov    %rsp,%rbp
    3509:	41 57                	push   %r15
    350b:	49 89 f7             	mov    %rsi,%r15
    350e:	41 56                	push   %r14
    3510:	41 89 ce             	mov    %ecx,%r14d
    3513:	41 55                	push   %r13
    3515:	41 54                	push   %r12
    3517:	53                   	push   %rbx
    3518:	48 89 fb             	mov    %rdi,%rbx
    351b:	48 83 ec 78          	sub    $0x78,%rsp
    351f:	8b 46 10             	mov    0x10(%rsi),%eax
    3522:	89 54 24 5c          	mov    %edx,0x5c(%rsp)
    3526:	48 8b 57 28          	mov    0x28(%rdi),%rdx
    352a:	83 e8 01             	sub    $0x1,%eax
    352d:	48 89 34 24          	mov    %rsi,(%rsp)
    3531:	48 8b 12             	mov    (%rdx),%rdx
    3534:	4c 8b a4 c7 48 01 00 	mov    0x148(%rdi,%rax,8),%r12
    353b:	00 
    353c:	4c 89 44 24 40       	mov    %r8,0x40(%rsp)
    3541:	4c 89 4c 24 20       	mov    %r9,0x20(%rsp)
    3546:	48 8b 84 c2 40 0b 00 	mov    0xb40(%rdx,%rax,8),%rax
    354d:	00 
    354e:	48 8d 78 28          	lea    0x28(%rax),%rdi
    3552:	48 89 44 24 28       	mov    %rax,0x28(%rsp)
    3557:	48 89 7c 24 38       	mov    %rdi,0x38(%rsp)
    355c:	8b 78 64             	mov    0x64(%rax),%edi
    355f:	48 8b 40 58          	mov    0x58(%rax),%rax
    3563:	89 7c 24 0c          	mov    %edi,0xc(%rsp)
    3567:	4c 8b 68 30          	mov    0x30(%rax),%r13
    356b:	48 8b 40 60          	mov    0x60(%rax),%rax
    356f:	e8 00 00 00 00       	callq  3574 <block_gpu_pte_write_big+0x74>
    3574:	89 c7                	mov    %eax,%edi
    3576:	e8 00 00 00 00       	callq  357b <block_gpu_pte_write_big+0x7b>
    357b:	45 31 ed             	xor    %r13d,%r13d
    357e:	89 44 24 34          	mov    %eax,0x34(%rsp)
    3582:	8b 44 24 5c          	mov    0x5c(%rsp),%eax
    3586:	41 39 47 10          	cmp    %eax,0x10(%r15)
    358a:	74 16                	je     35a2 <block_gpu_pte_write_big+0xa2>
    358c:	85 c0                	test   %eax,%eax
    358e:	0f 84 14 02 00 00    	je     37a8 <block_gpu_pte_write_big+0x2a8>
    3594:	44 8b 05 00 00 00 00 	mov    0x0(%rip),%r8d        # 359b <block_gpu_pte_write_big+0x9b>
    359b:	45 85 c0             	test   %r8d,%r8d
    359e:	41 0f 94 c5          	sete   %r13b
    35a2:	48 8b 7c 24 40       	mov    0x40(%rsp),%rdi
    35a7:	be 20 00 00 00       	mov    $0x20,%esi
    35ac:	e8 00 00 00 00       	callq  35b1 <block_gpu_pte_write_big+0xb1>
    35b1:	49 89 c7             	mov    %rax,%r15
    35b4:	48 83 f8 1f          	cmp    $0x1f,%rax
    35b8:	0f 87 db 01 00 00    	ja     3799 <block_gpu_pte_write_big+0x299>
    35be:	49 8d 84 24 c0 00 00 	lea    0xc0(%r12),%rax
    35c5:	00 
    35c6:	31 f6                	xor    %esi,%esi
    35c8:	31 ff                	xor    %edi,%edi
    35ca:	c7 44 24 58 00 00 00 	movl   $0x0,0x58(%rsp)
    35d1:	00 
    35d2:	48 89 44 24 18       	mov    %rax,0x18(%rsp)
    35d7:	41 0f b6 c5          	movzbl %r13b,%eax
    35db:	44 8b 6c 24 0c       	mov    0xc(%rsp),%r13d
    35e0:	89 44 24 30          	mov    %eax,0x30(%rsp)
    35e4:	4c 89 e8             	mov    %r13,%rax
    35e7:	66 89 74 24 56       	mov    %si,0x56(%rsp)
    35ec:	48 f7 d8             	neg    %rax
    35ef:	66 89 7c 24 50       	mov    %di,0x50(%rsp)
    35f4:	48 89 44 24 10       	mov    %rax,0x10(%rsp)
    35f9:	48 c7 44 24 48 00 00 	movq   $0x0,0x48(%rsp)
    3600:	00 00 
    3602:	e9 c1 00 00 00       	jmpq   36c8 <block_gpu_pte_write_big+0x1c8>
    3607:	0f b7 44 24 56       	movzwl 0x56(%rsp),%eax
    360c:	48 8b 74 24 18       	mov    0x18(%rsp),%rsi
    3611:	4c 89 fa             	mov    %r15,%rdx
    3614:	4c 89 4c 24 60       	mov    %r9,0x60(%rsp)
    3619:	48 8b 7c 24 38       	mov    0x38(%rsp),%rdi
    361e:	41 29 c4             	sub    %eax,%r12d
    3621:	4d 63 c4             	movslq %r12d,%r8
    3624:	49 c1 e0 0c          	shl    $0xc,%r8
    3628:	4c 03 44 24 48       	add    0x48(%rsp),%r8
    362d:	4c 89 44 24 68       	mov    %r8,0x68(%rsp)
    3632:	e8 c9 c9 ff ff       	callq  0 <uvm_page_table_range_entry_address>
    3637:	4c 8b 44 24 68       	mov    0x68(%rsp),%r8
    363c:	8b 4c 24 30          	mov    0x30(%rsp),%ecx
    3640:	49 89 c4             	mov    %rax,%r12
    3643:	48 8b 44 24 28       	mov    0x28(%rsp),%rax
    3648:	8b 7c 24 58          	mov    0x58(%rsp),%edi
    364c:	48 89 54 24 70       	mov    %rdx,0x70(%rsp)
    3651:	4c 89 c6             	mov    %r8,%rsi
    3654:	44 89 f2             	mov    %r14d,%edx
    3657:	48 8b 40 58          	mov    0x58(%rax),%rax
    365b:	48 8b 00             	mov    (%rax),%rax
    365e:	e8 00 00 00 00       	callq  3663 <block_gpu_pte_write_big+0x163>
    3663:	48 8b 54 24 70       	mov    0x70(%rsp),%rdx
    3668:	44 8b 44 24 34       	mov    0x34(%rsp),%r8d
    366d:	4c 89 e6             	mov    %r12,%rsi
    3670:	48 8b 7c 24 20       	mov    0x20(%rsp),%rdi
    3675:	48 89 c1             	mov    %rax,%rcx
    3678:	e8 00 00 00 00       	callq  367d <block_gpu_pte_write_big+0x17d>
    367d:	48 83 7d 10 00       	cmpq   $0x0,0x10(%rbp)
    3682:	74 24                	je     36a8 <block_gpu_pte_write_big+0x1a8>
    3684:	4c 8b 4c 24 60       	mov    0x60(%rsp),%r9
    3689:	8b 4c 24 0c          	mov    0xc(%rsp),%ecx
    368d:	45 31 c0             	xor    %r8d,%r8d
    3690:	4c 89 ea             	mov    %r13,%rdx
    3693:	48 8b 7d 10          	mov    0x10(%rbp),%rdi
    3697:	41 0f b7 f1          	movzwl %r9w,%esi
    369b:	48 c1 e6 0c          	shl    $0xc,%rsi
    369f:	48 03 73 30          	add    0x30(%rbx),%rsi
    36a3:	e8 00 00 00 00       	callq  36a8 <block_gpu_pte_write_big+0x1a8>
    36a8:	48 8b 7c 24 40       	mov    0x40(%rsp),%rdi
    36ad:	49 8d 57 01          	lea    0x1(%r15),%rdx
    36b1:	be 20 00 00 00       	mov    $0x20,%esi
    36b6:	e8 00 00 00 00       	callq  36bb <block_gpu_pte_write_big+0x1bb>
    36bb:	49 89 c7             	mov    %rax,%r15
    36be:	48 83 f8 1f          	cmp    $0x1f,%rax
    36c2:	0f 87 d1 00 00 00    	ja     3799 <block_gpu_pte_write_big+0x299>
    36c8:	4c 89 f9             	mov    %r15,%rcx
    36cb:	48 8b 53 30          	mov    0x30(%rbx),%rdx
    36cf:	49 0f af cd          	imul   %r13,%rcx
    36d3:	4a 8d 44 2a ff       	lea    -0x1(%rdx,%r13,1),%rax
    36d8:	48 23 44 24 10       	and    0x10(%rsp),%rax
    36dd:	48 01 c8             	add    %rcx,%rax
    36e0:	49 89 c1             	mov    %rax,%r9
    36e3:	49 29 d1             	sub    %rdx,%r9
    36e6:	49 c1 e9 0c          	shr    $0xc,%r9
    36ea:	41 83 fe 01          	cmp    $0x1,%r14d
    36ee:	76 08                	jbe    36f8 <block_gpu_pte_write_big+0x1f8>
    36f0:	8b 4c 24 5c          	mov    0x5c(%rsp),%ecx
    36f4:	85 c9                	test   %ecx,%ecx
    36f6:	74 55                	je     374d <block_gpu_pte_write_big+0x24d>
    36f8:	45 0f b7 e1          	movzwl %r9w,%r12d
    36fc:	66 44 3b 4c 24 50    	cmp    0x50(%rsp),%r9w
    3702:	0f 82 ff fe ff ff    	jb     3607 <block_gpu_pte_write_big+0x107>
    3708:	8b 54 24 5c          	mov    0x5c(%rsp),%edx
    370c:	44 89 e6             	mov    %r12d,%esi
    370f:	48 89 df             	mov    %rbx,%rdi
    3712:	4c 89 4c 24 70       	mov    %r9,0x70(%rsp)
    3717:	e8 44 fa ff ff       	callq  3160 <block_phys_contig_region>
    371c:	48 8b 0c 24          	mov    (%rsp),%rcx
    3720:	8b 74 24 5c          	mov    0x5c(%rsp),%esi
    3724:	48 89 df             	mov    %rbx,%rdi
    3727:	66 89 44 24 56       	mov    %ax,0x56(%rsp)
    372c:	89 c2                	mov    %eax,%edx
    372e:	c1 e8 10             	shr    $0x10,%eax
    3731:	89 44 24 50          	mov    %eax,0x50(%rsp)
    3735:	e8 36 f7 ff ff       	callq  2e70 <block_phys_page_address.isra.0>
    373a:	4c 8b 4c 24 70       	mov    0x70(%rsp),%r9
    373f:	48 89 44 24 48       	mov    %rax,0x48(%rsp)
    3744:	89 54 24 58          	mov    %edx,0x58(%rsp)
    3748:	e9 ba fe ff ff       	jmpq   3607 <block_gpu_pte_write_big+0x107>
    374d:	48 f7 d2             	not    %rdx
    3750:	4a 8d 0c 2a          	lea    (%rdx,%r13,1),%rcx
    3754:	48 01 c1             	add    %rax,%rcx
    3757:	48 c1 e9 0c          	shr    $0xc,%rcx
    375b:	8d 41 01             	lea    0x1(%rcx),%eax
    375e:	66 41 39 c1          	cmp    %ax,%r9w
    3762:	74 94                	je     36f8 <block_gpu_pte_write_big+0x1f8>
    3764:	44 89 ca             	mov    %r9d,%edx
    3767:	eb 02                	jmp    376b <block_gpu_pte_write_big+0x26b>
    3769:	89 c2                	mov    %eax,%edx
    376b:	48 8b 83 98 00 00 00 	mov    0x98(%rbx),%rax
    3772:	0f b7 f2             	movzwl %dx,%esi
    3775:	48 8b 04 f0          	mov    (%rax,%rsi,8),%rax
    3779:	48 8b 70 08          	mov    0x8(%rax),%rsi
    377d:	48 8d 7e ff          	lea    -0x1(%rsi),%rdi
    3781:	83 e6 01             	and    $0x1,%esi
    3784:	48 0f 45 c7          	cmovne %rdi,%rax
    3788:	f0 80 08 08          	lock orb $0x8,(%rax)
    378c:	8d 42 01             	lea    0x1(%rdx),%eax
    378f:	66 39 d1             	cmp    %dx,%cx
    3792:	75 d5                	jne    3769 <block_gpu_pte_write_big+0x269>
    3794:	e9 5f ff ff ff       	jmpq   36f8 <block_gpu_pte_write_big+0x1f8>
    3799:	48 83 c4 78          	add    $0x78,%rsp
    379d:	5b                   	pop    %rbx
    379e:	41 5c                	pop    %r12
    37a0:	41 5d                	pop    %r13
    37a2:	41 5e                	pop    %r14
    37a4:	41 5f                	pop    %r15
    37a6:	5d                   	pop    %rbp
    37a7:	c3                   	retq   
    37a8:	44 8b 0d 00 00 00 00 	mov    0x0(%rip),%r9d        # 37af <block_gpu_pte_write_big+0x2af>
    37af:	45 85 c9             	test   %r9d,%r9d
    37b2:	41 0f 94 c5          	sete   %r13b
    37b6:	e9 e7 fd ff ff       	jmpq   35a2 <block_gpu_pte_write_big+0xa2>
    37bb:	0f 1f 44 00 00       	nopl   0x0(%rax,%rax,1)

00000000000037c0 <block_gpu_chunk_get_split_state>:
    37c0:	e8 00 00 00 00       	callq  37c5 <block_gpu_chunk_get_split_state+0x5>
    37c5:	55                   	push   %rbp
    37c6:	48 29 f2             	sub    %rsi,%rdx
    37c9:	48 89 e5             	mov    %rsp,%rbp
    37cc:	41 57                	push   %r15
    37ce:	4d 89 c7             	mov    %r8,%r15
    37d1:	45 31 c0             	xor    %r8d,%r8d
    37d4:	41 56                	push   %r14
    37d6:	41 89 ce             	mov    %ecx,%r14d
    37d9:	41 55                	push   %r13
    37db:	49 89 f5             	mov    %rsi,%r13
    37de:	41 54                	push   %r12
    37e0:	4c 8d 62 01          	lea    0x1(%rdx),%r12
    37e4:	4c 89 fa             	mov    %r15,%rdx
    37e7:	4c 89 e1             	mov    %r12,%rcx
    37ea:	53                   	push   %rbx
    37eb:	4c 89 e6             	mov    %r12,%rsi
    37ee:	48 89 fb             	mov    %rdi,%rbx
    37f1:	48 c1 e9 0c          	shr    $0xc,%rcx
    37f5:	4c 89 ef             	mov    %r13,%rdi
    37f8:	83 e9 01             	sub    $0x1,%ecx
    37fb:	0f b7 c9             	movzwl %cx,%ecx
    37fe:	e8 00 00 00 00       	callq  3803 <block_gpu_chunk_get_split_state+0x43>
    3803:	41 0f b7 ce          	movzwl %r14w,%ecx
    3807:	4c 8d 43 10          	lea    0x10(%rbx),%r8
    380b:	4c 89 fa             	mov    %r15,%rdx
    380e:	48 83 c0 01          	add    $0x1,%rax
    3812:	4c 89 e6             	mov    %r12,%rsi
    3815:	4c 89 ef             	mov    %r13,%rdi
    3818:	48 89 03             	mov    %rax,(%rbx)
    381b:	e8 00 00 00 00       	callq  3820 <block_gpu_chunk_get_split_state+0x60>
    3820:	48 89 43 08          	mov    %rax,0x8(%rbx)
    3824:	5b                   	pop    %rbx
    3825:	41 5c                	pop    %r12
    3827:	41 5d                	pop    %r13
    3829:	41 5e                	pop    %r14
    382b:	41 5f                	pop    %r15
    382d:	5d                   	pop    %rbp
    382e:	c3                   	retq   
    382f:	90                   	nop

0000000000003830 <block_split_gpu>:
    3830:	e8 00 00 00 00       	callq  3835 <block_split_gpu+0x5>
    3835:	55                   	push   %rbp
    3836:	83 ea 01             	sub    $0x1,%edx
    3839:	48 8d 4a 28          	lea    0x28(%rdx),%rcx
    383d:	48 89 e5             	mov    %rsp,%rbp
    3840:	41 57                	push   %r15
    3842:	41 56                	push   %r14
    3844:	41 55                	push   %r13
    3846:	41 54                	push   %r12
    3848:	53                   	push   %rbx
    3849:	48 89 f3             	mov    %rsi,%rbx
    384c:	48 89 fe             	mov    %rdi,%rsi
    384f:	48 81 ec a0 00 00 00 	sub    $0xa0,%rsp
    3856:	48 89 bd 58 ff ff ff 	mov    %rdi,-0xa8(%rbp)
    385d:	48 8b 7c cf 08       	mov    0x8(%rdi,%rcx,8),%rdi
    3862:	65 48 8b 04 25 28 00 	mov    %gs:0x28,%rax
    3869:	00 00 
    386b:	48 89 45 d0          	mov    %rax,-0x30(%rbp)
    386f:	31 c0                	xor    %eax,%eax
    3871:	48 8b 43 38          	mov    0x38(%rbx),%rax
    3875:	48 89 bd 68 ff ff ff 	mov    %rdi,-0x98(%rbp)
    387c:	48 83 c0 01          	add    $0x1,%rax
    3880:	48 2b 43 30          	sub    0x30(%rbx),%rax
    3884:	48 c1 e8 0c          	shr    $0xc,%rax
    3888:	48 89 85 48 ff ff ff 	mov    %rax,-0xb8(%rbp)
    388f:	48 85 ff             	test   %rdi,%rdi
    3892:	0f 84 a4 06 00 00    	je     3f3c <block_split_gpu+0x70c>
    3898:	48 8b 46 28          	mov    0x28(%rsi),%rax
    389c:	4c 8b 4c cb 08       	mov    0x8(%rbx,%rcx,8),%r9
    38a1:	48 89 f9             	mov    %rdi,%rcx
    38a4:	45 31 f6             	xor    %r14d,%r14d
    38a7:	4c 8b 20             	mov    (%rax),%r12
    38aa:	0f b6 87 f3 00 00 00 	movzbl 0xf3(%rdi),%eax
    38b1:	4c 89 8d 70 ff ff ff 	mov    %r9,-0x90(%rbp)
    38b8:	49 8b b9 88 00 00 00 	mov    0x88(%r9),%rdi
    38bf:	4d 8b 7c d4 08       	mov    0x8(%r12,%rdx,8),%r15
    38c4:	41 88 81 f3 00 00 00 	mov    %al,0xf3(%r9)
    38cb:	48 8b 43 30          	mov    0x30(%rbx),%rax
    38cf:	4d 8d af f0 09 00 00 	lea    0x9f0(%r15),%r13
    38d6:	48 89 c2             	mov    %rax,%rdx
    38d9:	48 2b 56 30          	sub    0x30(%rsi),%rdx
    38dd:	48 c1 ea 0c          	shr    $0xc,%rdx
    38e1:	48 8d 34 d5 00 00 00 	lea    0x0(,%rdx,8),%rsi
    38e8:	00 
    38e9:	48 89 95 50 ff ff ff 	mov    %rdx,-0xb0(%rbp)
    38f0:	48 8b 53 38          	mov    0x38(%rbx),%rdx
    38f4:	48 89 75 80          	mov    %rsi,-0x80(%rbp)
    38f8:	48 03 b1 88 00 00 00 	add    0x88(%rcx),%rsi
    38ff:	48 83 c2 01          	add    $0x1,%rdx
    3903:	48 29 c2             	sub    %rax,%rdx
    3906:	48 c1 ea 0c          	shr    $0xc,%rdx
    390a:	48 c1 e2 03          	shl    $0x3,%rdx
    390e:	e8 00 00 00 00       	callq  3913 <block_split_gpu+0xe3>
    3913:	48 8b 4b 38          	mov    0x38(%rbx),%rcx
    3917:	48 8d 41 01          	lea    0x1(%rcx),%rax
    391b:	48 2b 43 30          	sub    0x30(%rbx),%rax
    391f:	a9 00 f0 ff 0f       	test   $0xffff000,%eax
    3924:	74 56                	je     397c <block_split_gpu+0x14c>
    3926:	4c 89 a5 78 ff ff ff 	mov    %r12,-0x88(%rbp)
    392d:	49 89 dc             	mov    %rbx,%r12
    3930:	48 8b 9d 70 ff ff ff 	mov    -0x90(%rbp),%rbx
    3937:	48 8b b3 88 00 00 00 	mov    0x88(%rbx),%rsi
    393e:	41 0f b7 c6          	movzwl %r14w,%eax
    3942:	48 8b 34 c6          	mov    (%rsi,%rax,8),%rsi
    3946:	48 85 f6             	test   %rsi,%rsi
    3949:	74 10                	je     395b <block_split_gpu+0x12b>
    394b:	4c 89 e2             	mov    %r12,%rdx
    394e:	4c 89 ef             	mov    %r13,%rdi
    3951:	e8 00 00 00 00       	callq  3956 <block_split_gpu+0x126>
    3956:	49 8b 4c 24 38       	mov    0x38(%r12),%rcx
    395b:	48 8d 41 01          	lea    0x1(%rcx),%rax
    395f:	49 2b 44 24 30       	sub    0x30(%r12),%rax
    3964:	41 83 c6 01          	add    $0x1,%r14d
    3968:	48 c1 e8 0c          	shr    $0xc,%rax
    396c:	66 41 39 c6          	cmp    %ax,%r14w
    3970:	75 c5                	jne    3937 <block_split_gpu+0x107>
    3972:	4c 89 e3             	mov    %r12,%rbx
    3975:	4c 8b a5 78 ff ff ff 	mov    -0x88(%rbp),%r12
    397c:	48 8b 85 68 ff ff ff 	mov    -0x98(%rbp),%rax
    3983:	48 8b 8d 70 ff ff ff 	mov    -0x90(%rbp),%rcx
    398a:	48 8b b0 98 00 00 00 	mov    0x98(%rax),%rsi
    3991:	48 89 b1 98 00 00 00 	mov    %rsi,0x98(%rcx)
    3998:	0f b6 80 90 00 00 00 	movzbl 0x90(%rax),%eax
    399f:	88 81 90 00 00 00    	mov    %al,0x90(%rcx)
    39a5:	48 85 f6             	test   %rsi,%rsi
    39a8:	0f 85 ca 05 00 00    	jne    3f78 <block_split_gpu+0x748>
    39ae:	4c 8b b5 68 ff ff ff 	mov    -0x98(%rbp),%r14
    39b5:	48 8b 75 80          	mov    -0x80(%rbp),%rsi
    39b9:	49 c7 c0 00 00 00 00 	mov    $0x0,%r8
    39c0:	b9 f0 23 00 00       	mov    $0x23f0,%ecx
    39c5:	48 c7 c2 00 00 00 00 	mov    $0x0,%rdx
    39cc:	49 8b be 88 00 00 00 	mov    0x88(%r14),%rdi
    39d3:	e8 00 00 00 00       	callq  39d8 <block_split_gpu+0x1a8>
    39d8:	48 85 c0             	test   %rax,%rax
    39db:	74 07                	je     39e4 <block_split_gpu+0x1b4>
    39dd:	49 89 86 88 00 00 00 	mov    %rax,0x88(%r14)
    39e4:	41 8b 47 10          	mov    0x10(%r15),%eax
    39e8:	4c 8b 6b 30          	mov    0x30(%rbx),%r13
    39ec:	4d 89 f8             	mov    %r15,%r8
    39ef:	48 8d 7d 88          	lea    -0x78(%rbp),%rdi
    39f3:	48 8b 8d 58 ff ff ff 	mov    -0xa8(%rbp),%rcx
    39fa:	83 e8 01             	sub    $0x1,%eax
    39fd:	48 83 c0 28          	add    $0x28,%rax
    3a01:	48 8b 74 c1 08       	mov    0x8(%rcx,%rax,8),%rsi
    3a06:	4c 8b 74 c3 08       	mov    0x8(%rbx,%rax,8),%r14
    3a0b:	48 89 c8             	mov    %rcx,%rax
    3a0e:	48 8b 50 38          	mov    0x38(%rax),%rdx
    3a12:	48 89 75 80          	mov    %rsi,-0x80(%rbp)
    3a16:	48 8b 71 30          	mov    0x30(%rcx),%rsi
    3a1a:	49 29 f5             	sub    %rsi,%r13
    3a1d:	49 c1 ed 0c          	shr    $0xc,%r13
    3a21:	41 0f b7 cd          	movzwl %r13w,%ecx
    3a25:	66 44 89 ad 78 ff ff 	mov    %r13w,-0x88(%rbp)
    3a2c:	ff 
    3a2d:	e8 8e fd ff ff       	callq  37c0 <block_gpu_chunk_get_split_state>
    3a32:	48 8b 53 30          	mov    0x30(%rbx),%rdx
    3a36:	41 8d 4d ff          	lea    -0x1(%r13),%ecx
    3a3a:	4d 89 f8             	mov    %r15,%r8
    3a3d:	48 8b 85 58 ff ff ff 	mov    -0xa8(%rbp),%rax
    3a44:	0f b7 c9             	movzwl %cx,%ecx
    3a47:	48 8d 7d a0          	lea    -0x60(%rbp),%rdi
    3a4b:	48 83 ea 01          	sub    $0x1,%rdx
    3a4f:	48 8b 70 30          	mov    0x30(%rax),%rsi
    3a53:	e8 68 fd ff ff       	callq  37c0 <block_gpu_chunk_get_split_state>
    3a58:	48 8b 53 38          	mov    0x38(%rbx),%rdx
    3a5c:	48 8b 73 30          	mov    0x30(%rbx),%rsi
    3a60:	4d 89 f8             	mov    %r15,%r8
    3a63:	31 c9                	xor    %ecx,%ecx
    3a65:	48 8d 7d b8          	lea    -0x48(%rbp),%rdi
    3a69:	e8 52 fd ff ff       	callq  37c0 <block_gpu_chunk_get_split_state>
    3a6e:	48 8b 4d 88          	mov    -0x78(%rbp),%rcx
    3a72:	48 8b 45 90          	mov    -0x70(%rbp),%rax
    3a76:	48 8b 75 80          	mov    -0x80(%rbp),%rsi
    3a7a:	4c 8b 6d a0          	mov    -0x60(%rbp),%r13
    3a7e:	48 8d 51 ff          	lea    -0x1(%rcx),%rdx
    3a82:	48 8b 4d b8          	mov    -0x48(%rbp),%rcx
    3a86:	49 29 c5             	sub    %rax,%r13
    3a89:	48 01 c1             	add    %rax,%rcx
    3a8c:	48 29 d1             	sub    %rdx,%rcx
    3a8f:	48 29 c2             	sub    %rax,%rdx
    3a92:	48 89 cf             	mov    %rcx,%rdi
    3a95:	49 8b 8e a0 00 00 00 	mov    0xa0(%r14),%rcx
    3a9c:	48 c1 e2 03          	shl    $0x3,%rdx
    3aa0:	48 89 bd 60 ff ff ff 	mov    %rdi,-0xa0(%rbp)
    3aa7:	48 8d 3c f9          	lea    (%rcx,%rdi,8),%rdi
    3aab:	48 8b 8e a0 00 00 00 	mov    0xa0(%rsi),%rcx
    3ab2:	48 8d 74 c1 08       	lea    0x8(%rcx,%rax,8),%rsi
    3ab7:	e8 00 00 00 00       	callq  3abc <block_split_gpu+0x28c>
    3abc:	48 8b 75 80          	mov    -0x80(%rbp),%rsi
    3ac0:	48 8b 55 90          	mov    -0x70(%rbp),%rdx
    3ac4:	48 8b 86 a0 00 00 00 	mov    0xa0(%rsi),%rax
    3acb:	4c 8d 04 d0          	lea    (%rax,%rdx,8),%r8
    3acf:	49 8b 30             	mov    (%r8),%rsi
    3ad2:	48 85 f6             	test   %rsi,%rsi
    3ad5:	0f 84 86 04 00 00    	je     3f61 <block_split_gpu+0x731>
    3adb:	49 8d bf 70 04 00 00 	lea    0x470(%r15),%rdi
    3ae2:	4c 89 e9             	mov    %r13,%rcx
    3ae5:	31 d2                	xor    %edx,%edx
    3ae7:	48 89 b5 38 ff ff ff 	mov    %rsi,-0xc8(%rbp)
    3aee:	48 89 bd 40 ff ff ff 	mov    %rdi,-0xc0(%rbp)
    3af5:	e8 00 00 00 00       	callq  3afa <block_split_gpu+0x2ca>
    3afa:	4d 8b 86 a0 00 00 00 	mov    0xa0(%r14),%r8
    3b01:	4c 89 ea             	mov    %r13,%rdx
    3b04:	48 8b 8d 60 ff ff ff 	mov    -0xa0(%rbp),%rcx
    3b0b:	48 8b b5 38 ff ff ff 	mov    -0xc8(%rbp),%rsi
    3b12:	48 8b bd 40 ff ff ff 	mov    -0xc0(%rbp),%rdi
    3b19:	e8 00 00 00 00       	callq  3b1e <block_split_gpu+0x2ee>
    3b1e:	4d 8d af 10 07 00 00 	lea    0x710(%r15),%r13
    3b25:	4c 89 ef             	mov    %r13,%rdi
    3b28:	e8 00 00 00 00       	callq  3b2d <block_split_gpu+0x2fd>
    3b2d:	4c 8b 55 b8          	mov    -0x48(%rbp),%r10
    3b31:	0f b7 b5 78 ff ff ff 	movzwl -0x88(%rbp),%esi
    3b38:	31 c9                	xor    %ecx,%ecx
    3b3a:	4d 85 d2             	test   %r10,%r10
    3b3d:	74 3f                	je     3b7e <block_split_gpu+0x34e>
    3b3f:	49 8b 86 a0 00 00 00 	mov    0xa0(%r14),%rax
    3b46:	48 8b 04 c8          	mov    (%rax,%rcx,8),%rax
    3b4a:	48 85 c0             	test   %rax,%rax
    3b4d:	74 26                	je     3b75 <block_split_gpu+0x345>
    3b4f:	48 89 58 20          	mov    %rbx,0x20(%rax)
    3b53:	49 8b 86 a0 00 00 00 	mov    0xa0(%r14),%rax
    3b5a:	48 8b 3c c8          	mov    (%rax,%rcx,8),%rdi
    3b5e:	0f b7 47 0a          	movzwl 0xa(%rdi),%eax
    3b62:	89 c2                	mov    %eax,%edx
    3b64:	66 25 00 fc          	and    $0xfc00,%ax
    3b68:	29 f2                	sub    %esi,%edx
    3b6a:	66 81 e2 ff 03       	and    $0x3ff,%dx
    3b6f:	09 d0                	or     %edx,%eax
    3b71:	66 89 47 0a          	mov    %ax,0xa(%rdi)
    3b75:	48 83 c1 01          	add    $0x1,%rcx
    3b79:	4c 39 d1             	cmp    %r10,%rcx
    3b7c:	75 c1                	jne    3b3f <block_split_gpu+0x30f>
    3b7e:	4c 89 ef             	mov    %r13,%rdi
    3b81:	ff 14 25 00 00 00 00 	callq  *0x0
    3b88:	48 8b 45 a0          	mov    -0x60(%rbp),%rax
    3b8c:	48 3b 45 88          	cmp    -0x78(%rbp),%rax
    3b90:	0f 82 f6 03 00 00    	jb     3f8c <block_split_gpu+0x75c>
    3b96:	4c 89 fe             	mov    %r15,%rsi
    3b99:	48 89 df             	mov    %rbx,%rdi
    3b9c:	e8 ef ec ff ff       	callq  2890 <block_num_gpu_chunks>
    3ba1:	48 c7 45 80 00 00 00 	movq   $0x0,-0x80(%rbp)
    3ba8:	00 
    3ba9:	49 8d 8f 70 04 00 00 	lea    0x470(%r15),%rcx
    3bb0:	48 89 85 60 ff ff ff 	mov    %rax,-0xa0(%rbp)
    3bb7:	48 85 c0             	test   %rax,%rax
    3bba:	0f 84 c4 00 00 00    	je     3c84 <block_split_gpu+0x454>
    3bc0:	4c 89 bd 78 ff ff ff 	mov    %r15,-0x88(%rbp)
    3bc7:	49 89 ce             	mov    %rcx,%r14
    3bca:	eb 16                	jmp    3be2 <block_split_gpu+0x3b2>
    3bcc:	48 83 45 80 01       	addq   $0x1,-0x80(%rbp)
    3bd1:	48 8b 45 80          	mov    -0x80(%rbp),%rax
    3bd5:	48 39 85 60 ff ff ff 	cmp    %rax,-0xa0(%rbp)
    3bdc:	0f 84 9b 00 00 00    	je     3c7d <block_split_gpu+0x44d>
    3be2:	48 8b 85 70 ff ff ff 	mov    -0x90(%rbp),%rax
    3be9:	48 8b 4d 80          	mov    -0x80(%rbp),%rcx
    3bed:	48 8b 80 a0 00 00 00 	mov    0xa0(%rax),%rax
    3bf4:	4c 8b 3c c8          	mov    (%rax,%rcx,8),%r15
    3bf8:	4d 85 ff             	test   %r15,%r15
    3bfb:	74 cf                	je     3bcc <block_split_gpu+0x39c>
    3bfd:	48 8b 85 78 ff ff ff 	mov    -0x88(%rbp),%rax
    3c04:	ba 01 00 00 00       	mov    $0x1,%edx
    3c09:	be 21 00 00 00       	mov    $0x21,%esi
    3c0e:	8b 40 10             	mov    0x10(%rax),%eax
    3c11:	49 8d bc c4 18 08 00 	lea    0x818(%r12,%rax,8),%rdi
    3c18:	00 
    3c19:	e8 00 00 00 00       	callq  3c1e <block_split_gpu+0x3ee>
    3c1e:	83 f8 21             	cmp    $0x21,%eax
    3c21:	74 a9                	je     3bcc <block_split_gpu+0x39c>
    3c23:	83 e8 01             	sub    $0x1,%eax
    3c26:	4d 8b 6c c4 08       	mov    0x8(%r12,%rax,8),%r13
    3c2b:	4d 85 ed             	test   %r13,%r13
    3c2e:	74 9c                	je     3bcc <block_split_gpu+0x39c>
    3c30:	4c 89 ea             	mov    %r13,%rdx
    3c33:	4c 89 fe             	mov    %r15,%rsi
    3c36:	4c 89 f7             	mov    %r14,%rdi
    3c39:	e8 00 00 00 00       	callq  3c3e <block_split_gpu+0x40e>
    3c3e:	49 8d bd f0 09 00 00 	lea    0x9f0(%r13),%rdi
    3c45:	48 89 da             	mov    %rbx,%rdx
    3c48:	48 89 c6             	mov    %rax,%rsi
    3c4b:	e8 00 00 00 00       	callq  3c50 <block_split_gpu+0x420>
    3c50:	41 8b 45 10          	mov    0x10(%r13),%eax
    3c54:	be 21 00 00 00       	mov    $0x21,%esi
    3c59:	8d 50 01             	lea    0x1(%rax),%edx
    3c5c:	48 8b 85 78 ff ff ff 	mov    -0x88(%rbp),%rax
    3c63:	8b 40 10             	mov    0x10(%rax),%eax
    3c66:	49 8d bc c4 18 08 00 	lea    0x818(%r12,%rax,8),%rdi
    3c6d:	00 
    3c6e:	e8 00 00 00 00       	callq  3c73 <block_split_gpu+0x443>
    3c73:	83 f8 21             	cmp    $0x21,%eax
    3c76:	75 ab                	jne    3c23 <block_split_gpu+0x3f3>
    3c78:	e9 4f ff ff ff       	jmpq   3bcc <block_split_gpu+0x39c>
    3c7d:	4c 8b bd 78 ff ff ff 	mov    -0x88(%rbp),%r15
    3c84:	4c 8b b5 48 ff ff ff 	mov    -0xb8(%rbp),%r14
    3c8b:	4c 8b ad 50 ff ff ff 	mov    -0xb0(%rbp),%r13
    3c92:	41 bc 00 01 00 00    	mov    $0x100,%r12d
    3c98:	48 8b 95 70 ff ff ff 	mov    -0x90(%rbp),%rdx
    3c9f:	48 8b bd 68 ff ff ff 	mov    -0x98(%rbp),%rdi
    3ca6:	4c 89 f1             	mov    %r14,%rcx
    3ca9:	4c 89 ee             	mov    %r13,%rsi
    3cac:	e8 af cd ff ff       	callq  a60 <block_split_page_mask>
    3cb1:	48 8b 85 70 ff ff ff 	mov    -0x90(%rbp),%rax
    3cb8:	4c 89 f1             	mov    %r14,%rcx
    3cbb:	4c 89 ee             	mov    %r13,%rsi
    3cbe:	4a 8d 14 20          	lea    (%rax,%r12,1),%rdx
    3cc2:	48 8b 85 68 ff ff ff 	mov    -0x98(%rbp),%rax
    3cc9:	4a 8d 3c 20          	lea    (%rax,%r12,1),%rdi
    3ccd:	49 83 c4 40          	add    $0x40,%r12
    3cd1:	e8 8a cd ff ff       	callq  a60 <block_split_page_mask>
    3cd6:	49 81 fc c0 01 00 00 	cmp    $0x1c0,%r12
    3cdd:	75 d2                	jne    3cb1 <block_split_gpu+0x481>
    3cdf:	49 8b 07             	mov    (%r15),%rax
    3ce2:	80 b8 28 5e 00 00 00 	cmpb   $0x0,0x5e28(%rax)
    3ce9:	0f 84 90 00 00 00    	je     3d7f <block_split_gpu+0x54f>
    3cef:	48 8b 85 58 ff ff ff 	mov    -0xa8(%rbp),%rax
    3cf6:	45 8b 77 30          	mov    0x30(%r15),%r14d
    3cfa:	4c 8b 63 30          	mov    0x30(%rbx),%r12
    3cfe:	4c 8b 40 30          	mov    0x30(%rax),%r8
    3d02:	44 89 f2             	mov    %r14d,%edx
    3d05:	49 8d 74 24 ff       	lea    -0x1(%r12),%rsi
    3d0a:	4c 89 c7             	mov    %r8,%rdi
    3d0d:	4c 89 45 80          	mov    %r8,-0x80(%rbp)
    3d11:	e8 da e4 ff ff       	callq  21f0 <range_num_big_pages>
    3d16:	48 8b 73 38          	mov    0x38(%rbx),%rsi
    3d1a:	4c 89 e7             	mov    %r12,%rdi
    3d1d:	44 89 f2             	mov    %r14d,%edx
    3d20:	49 89 c5             	mov    %rax,%r13
    3d23:	e8 c8 e4 ff ff       	callq  21f0 <range_num_big_pages>
    3d28:	4c 8b 45 80          	mov    -0x80(%rbp),%r8
    3d2c:	44 89 f2             	mov    %r14d,%edx
    3d2f:	49 89 c4             	mov    %rax,%r12
    3d32:	48 8b 85 58 ff ff ff 	mov    -0xa8(%rbp),%rax
    3d39:	4c 89 c7             	mov    %r8,%rdi
    3d3c:	48 8b 70 38          	mov    0x38(%rax),%rsi
    3d40:	e8 ab e4 ff ff       	callq  21f0 <range_num_big_pages>
    3d45:	48 8b b5 68 ff ff ff 	mov    -0x98(%rbp),%rsi
    3d4c:	89 c1                	mov    %eax,%ecx
    3d4e:	48 8b 85 70 ff ff ff 	mov    -0x90(%rbp),%rax
    3d55:	8b 96 80 00 00 00    	mov    0x80(%rsi),%edx
    3d5b:	44 29 e1             	sub    %r12d,%ecx
    3d5e:	48 8d be 80 00 00 00 	lea    0x80(%rsi),%rdi
    3d65:	44 89 ee             	mov    %r13d,%esi
    3d68:	48 d3 ea             	shr    %cl,%rdx
    3d6b:	48 89 90 80 00 00 00 	mov    %rdx,0x80(%rax)
    3d72:	ba 20 00 00 00       	mov    $0x20,%edx
    3d77:	44 29 ea             	sub    %r13d,%edx
    3d7a:	e8 00 00 00 00       	callq  3d7f <block_split_gpu+0x54f>
    3d7f:	48 8b 85 58 ff ff ff 	mov    -0xa8(%rbp),%rax
    3d86:	4c 89 fe             	mov    %r15,%rsi
    3d89:	48 8b 40 28          	mov    0x28(%rax),%rax
    3d8d:	48 8b 38             	mov    (%rax),%rdi
    3d90:	e8 db c2 ff ff       	callq  70 <uvm_gpu_va_space_get>
    3d95:	48 85 c0             	test   %rax,%rax
    3d98:	0f 84 75 01 00 00    	je     3f13 <block_split_gpu+0x6e3>
    3d9e:	4c 8d 60 28          	lea    0x28(%rax),%r12
    3da2:	48 8b 85 68 ff ff ff 	mov    -0x98(%rbp),%rax
    3da9:	48 83 b8 c0 00 00 00 	cmpq   $0x0,0xc0(%rax)
    3db0:	00 
    3db1:	0f 84 c3 00 00 00    	je     3e7a <block_split_gpu+0x64a>
    3db7:	49 8b 07             	mov    (%r15),%rax
    3dba:	80 b8 28 5e 00 00 00 	cmpb   $0x0,0x5e28(%rax)
    3dc1:	0f 85 05 02 00 00    	jne    3fcc <block_split_gpu+0x79c>
    3dc7:	48 8b bd 58 ff ff ff 	mov    -0xa8(%rbp),%rdi
    3dce:	4c 89 fe             	mov    %r15,%rsi
    3dd1:	e8 8a d9 ff ff       	callq  1760 <uvm_va_block_gpu_big_page_size.part.0>
    3dd6:	41 89 c6             	mov    %eax,%r14d
    3dd9:	48 8b 85 58 ff ff ff 	mov    -0xa8(%rbp),%rax
    3de0:	4c 8b 7b 30          	mov    0x30(%rbx),%r15
    3de4:	44 89 f2             	mov    %r14d,%edx
    3de7:	48 8b 78 30          	mov    0x30(%rax),%rdi
    3deb:	49 8d 77 ff          	lea    -0x1(%r15),%rsi
    3def:	e8 fc e3 ff ff       	callq  21f0 <range_num_big_pages>
    3df4:	48 8b 73 38          	mov    0x38(%rbx),%rsi
    3df8:	4c 89 ff             	mov    %r15,%rdi
    3dfb:	44 89 f2             	mov    %r14d,%edx
    3dfe:	49 89 c5             	mov    %rax,%r13
    3e01:	e8 ea e3 ff ff       	callq  21f0 <range_num_big_pages>
    3e06:	49 89 c0             	mov    %rax,%r8
    3e09:	48 8b 85 68 ff ff ff 	mov    -0x98(%rbp),%rax
    3e10:	4c 8d b8 c0 00 00 00 	lea    0xc0(%rax),%r15
    3e17:	4d 85 c0             	test   %r8,%r8
    3e1a:	0f 85 b5 01 00 00    	jne    3fd5 <block_split_gpu+0x7a5>
    3e20:	44 89 ea             	mov    %r13d,%edx
    3e23:	4c 89 fe             	mov    %r15,%rsi
    3e26:	4c 89 e7             	mov    %r12,%rdi
    3e29:	e8 00 00 00 00       	callq  3e2e <block_split_gpu+0x5fe>
    3e2e:	4d 85 ed             	test   %r13,%r13
    3e31:	75 29                	jne    3e5c <block_split_gpu+0x62c>
    3e33:	48 8b 85 68 ff ff ff 	mov    -0x98(%rbp),%rax
    3e3a:	48 c7 80 c0 00 00 00 	movq   $0x0,0xc0(%rax)
    3e41:	00 00 00 00 
    3e45:	49 c7 47 08 00 00 00 	movq   $0x0,0x8(%r15)
    3e4c:	00 
    3e4d:	49 c7 47 10 00 00 00 	movq   $0x0,0x10(%r15)
    3e54:	00 
    3e55:	c6 80 f2 00 00 00 00 	movb   $0x0,0xf2(%rax)
    3e5c:	48 8b 85 68 ff ff ff 	mov    -0x98(%rbp),%rax
    3e63:	ba 20 00 00 00       	mov    $0x20,%edx
    3e68:	44 89 ee             	mov    %r13d,%esi
    3e6b:	44 29 ea             	sub    %r13d,%edx
    3e6e:	48 8d b8 f8 00 00 00 	lea    0xf8(%rax),%rdi
    3e75:	e8 00 00 00 00       	callq  3e7a <block_split_gpu+0x64a>
    3e7a:	48 8b 85 68 ff ff ff 	mov    -0x98(%rbp),%rax
    3e81:	48 83 b8 d8 00 00 00 	cmpq   $0x0,0xd8(%rax)
    3e88:	00 
    3e89:	74 41                	je     3ecc <block_split_gpu+0x69c>
    3e8b:	4c 8d a8 d8 00 00 00 	lea    0xd8(%rax),%r13
    3e92:	48 8b 43 38          	mov    0x38(%rbx),%rax
    3e96:	4c 89 e7             	mov    %r12,%rdi
    3e99:	4c 89 ee             	mov    %r13,%rsi
    3e9c:	48 8d 48 01          	lea    0x1(%rax),%rcx
    3ea0:	48 8b 85 70 ff ff ff 	mov    -0x90(%rbp),%rax
    3ea7:	48 2b 4b 30          	sub    0x30(%rbx),%rcx
    3eab:	48 c1 e9 0c          	shr    $0xc,%rcx
    3eaf:	48 8d 90 d8 00 00 00 	lea    0xd8(%rax),%rdx
    3eb6:	e8 00 00 00 00       	callq  3ebb <block_split_gpu+0x68b>
    3ebb:	8b 95 50 ff ff ff    	mov    -0xb0(%rbp),%edx
    3ec1:	4c 89 ee             	mov    %r13,%rsi
    3ec4:	4c 89 e7             	mov    %r12,%rdi
    3ec7:	e8 00 00 00 00       	callq  3ecc <block_split_gpu+0x69c>
    3ecc:	48 8b 85 68 ff ff ff 	mov    -0x98(%rbp),%rax
    3ed3:	80 b8 f4 00 00 00 00 	cmpb   $0x0,0xf4(%rax)
    3eda:	74 07                	je     3ee3 <block_split_gpu+0x6b3>
    3edc:	c6 80 f4 00 00 00 00 	movb   $0x0,0xf4(%rax)
    3ee3:	48 8b 85 68 ff ff ff 	mov    -0x98(%rbp),%rax
    3eea:	48 83 b8 a8 00 00 00 	cmpq   $0x0,0xa8(%rax)
    3ef1:	00 
    3ef2:	74 0f                	je     3f03 <block_split_gpu+0x6d3>
    3ef4:	48 8d b0 a8 00 00 00 	lea    0xa8(%rax),%rsi
    3efb:	4c 89 e7             	mov    %r12,%rdi
    3efe:	e8 3d d3 ff ff       	callq  1240 <block_put_ptes_safe.part.0>
    3f03:	48 8b 85 68 ff ff ff 	mov    -0x98(%rbp),%rax
    3f0a:	31 d2                	xor    %edx,%edx
    3f0c:	66 89 90 f0 00 00 00 	mov    %dx,0xf0(%rax)
    3f13:	48 8b 95 70 ff ff ff 	mov    -0x90(%rbp),%rdx
    3f1a:	48 8b bd 68 ff ff ff 	mov    -0x98(%rbp),%rdi
    3f21:	48 8b 8d 48 ff ff ff 	mov    -0xb8(%rbp),%rcx
    3f28:	48 8b b5 50 ff ff ff 	mov    -0xb0(%rbp),%rsi
    3f2f:	48 83 c2 40          	add    $0x40,%rdx
    3f33:	48 83 c7 40          	add    $0x40,%rdi
    3f37:	e8 24 cb ff ff       	callq  a60 <block_split_page_mask>
    3f3c:	48 8b 45 d0          	mov    -0x30(%rbp),%rax
    3f40:	65 48 33 04 25 28 00 	xor    %gs:0x28,%rax
    3f47:	00 00 
    3f49:	0f 85 f7 00 00 00    	jne    4046 <block_split_gpu+0x816>
    3f4f:	48 81 c4 a0 00 00 00 	add    $0xa0,%rsp
    3f56:	5b                   	pop    %rbx
    3f57:	41 5c                	pop    %r12
    3f59:	41 5d                	pop    %r13
    3f5b:	41 5e                	pop    %r14
    3f5d:	41 5f                	pop    %r15
    3f5f:	5d                   	pop    %rbp
    3f60:	c3                   	retq   
    3f61:	4a 8d 14 ed 00 00 00 	lea    0x0(,%r13,8),%rdx
    3f68:	00 
    3f69:	31 f6                	xor    %esi,%esi
    3f6b:	4c 89 c7             	mov    %r8,%rdi
    3f6e:	e8 00 00 00 00       	callq  3f73 <block_split_gpu+0x743>
    3f73:	e9 a6 fb ff ff       	jmpq   3b1e <block_split_gpu+0x2ee>
    3f78:	49 8d bf f0 09 00 00 	lea    0x9f0(%r15),%rdi
    3f7f:	48 89 da             	mov    %rbx,%rdx
    3f82:	e8 00 00 00 00       	callq  3f87 <block_split_gpu+0x757>
    3f87:	e9 22 fa ff ff       	jmpq   39ae <block_split_gpu+0x17e>
    3f8c:	4c 8b 75 80          	mov    -0x80(%rbp),%r14
    3f90:	48 8d 34 c5 00 00 00 	lea    0x0(,%rax,8),%rsi
    3f97:	00 
    3f98:	49 c7 c0 00 00 00 00 	mov    $0x0,%r8
    3f9f:	b9 b0 23 00 00       	mov    $0x23b0,%ecx
    3fa4:	48 c7 c2 00 00 00 00 	mov    $0x0,%rdx
    3fab:	49 8b be a0 00 00 00 	mov    0xa0(%r14),%rdi
    3fb2:	e8 00 00 00 00       	callq  3fb7 <block_split_gpu+0x787>
    3fb7:	48 85 c0             	test   %rax,%rax
    3fba:	0f 84 d6 fb ff ff    	je     3b96 <block_split_gpu+0x366>
    3fc0:	49 89 86 a0 00 00 00 	mov    %rax,0xa0(%r14)
    3fc7:	e9 ca fb ff ff       	jmpq   3b96 <block_split_gpu+0x366>
    3fcc:	45 8b 77 30          	mov    0x30(%r15),%r14d
    3fd0:	e9 04 fe ff ff       	jmpq   3dd9 <block_split_gpu+0x5a9>
    3fd5:	48 8b 8d 70 ff ff ff 	mov    -0x90(%rbp),%rcx
    3fdc:	4c 89 fe             	mov    %r15,%rsi
    3fdf:	4c 89 e7             	mov    %r12,%rdi
    3fe2:	4c 89 45 80          	mov    %r8,-0x80(%rbp)
    3fe6:	48 8d 91 c0 00 00 00 	lea    0xc0(%rcx),%rdx
    3fed:	44 89 c1             	mov    %r8d,%ecx
    3ff0:	e8 00 00 00 00       	callq  3ff5 <block_split_gpu+0x7c5>
    3ff5:	48 8b 85 58 ff ff ff 	mov    -0xa8(%rbp),%rax
    3ffc:	44 89 f2             	mov    %r14d,%edx
    3fff:	48 8b 70 38          	mov    0x38(%rax),%rsi
    4003:	48 8b 78 30          	mov    0x30(%rax),%rdi
    4007:	e8 e4 e1 ff ff       	callq  21f0 <range_num_big_pages>
    400c:	48 8b 95 68 ff ff ff 	mov    -0x98(%rbp),%rdx
    4013:	4c 8b 45 80          	mov    -0x80(%rbp),%r8
    4017:	48 89 c1             	mov    %rax,%rcx
    401a:	8b 82 f8 00 00 00    	mov    0xf8(%rdx),%eax
    4020:	44 29 c1             	sub    %r8d,%ecx
    4023:	48 d3 e8             	shr    %cl,%rax
    4026:	48 8b 8d 70 ff ff ff 	mov    -0x90(%rbp),%rcx
    402d:	48 89 81 f8 00 00 00 	mov    %rax,0xf8(%rcx)
    4034:	0f b6 82 f2 00 00 00 	movzbl 0xf2(%rdx),%eax
    403b:	88 81 f2 00 00 00    	mov    %al,0xf2(%rcx)
    4041:	e9 da fd ff ff       	jmpq   3e20 <block_split_gpu+0x5f0>
    4046:	e8 00 00 00 00       	callq  404b <block_split_gpu+0x81b>
    404b:	0f 1f 44 00 00       	nopl   0x0(%rax,%rax,1)

0000000000004050 <block_split_preallocate_no_retry>:
    4050:	e8 00 00 00 00       	callq  4055 <block_split_preallocate_no_retry+0x5>
    4055:	55                   	push   %rbp
    4056:	48 89 e5             	mov    %rsp,%rbp
    4059:	41 57                	push   %r15
    405b:	49 89 ff             	mov    %rdi,%r15
    405e:	41 56                	push   %r14
    4060:	49 89 f6             	mov    %rsi,%r14
    4063:	41 55                	push   %r13
    4065:	41 54                	push   %r12
    4067:	53                   	push   %rbx
    4068:	48 81 ec 98 00 00 00 	sub    $0x98,%rsp
    406f:	65 48 8b 04 25 28 00 	mov    %gs:0x28,%rax
    4076:	00 00 
    4078:	48 89 45 d0          	mov    %rax,-0x30(%rbp)
    407c:	31 c0                	xor    %eax,%eax
    407e:	48 8b 47 28          	mov    0x28(%rdi),%rax
    4082:	48 c7 85 78 ff ff ff 	movq   $0x0,-0x88(%rbp)
    4089:	00 00 00 00 
    408d:	48 89 85 40 ff ff ff 	mov    %rax,-0xc0(%rbp)
    4094:	48 8b 85 78 ff ff ff 	mov    -0x88(%rbp),%rax
    409b:	49 83 bc c7 48 01 00 	cmpq   $0x0,0x148(%r15,%rax,8)
    40a2:	00 00 
    40a4:	0f 84 82 02 00 00    	je     432c <block_split_preallocate_no_retry+0x2dc>
    40aa:	49 8b 47 28          	mov    0x28(%r15),%rax
    40ae:	49 8b 77 30          	mov    0x30(%r15),%rsi
    40b2:	48 8d 7d 88          	lea    -0x78(%rbp),%rdi
    40b6:	49 8b 57 38          	mov    0x38(%r15),%rdx
    40ba:	48 8b 18             	mov    (%rax),%rbx
    40bd:	8b 85 78 ff ff ff    	mov    -0x88(%rbp),%eax
    40c3:	4c 8b 64 c3 08       	mov    0x8(%rbx,%rax,8),%r12
    40c8:	41 8b 44 24 10       	mov    0x10(%r12),%eax
    40cd:	4d 89 e0             	mov    %r12,%r8
